
lane_app:     file format elf32-tradlittlemips


Disassembly of section .init:

004017cc <_init>:
  4017cc:	3c1c0002 	lui	gp,0x2
  4017d0:	279c3d54 	addiu	gp,gp,15700
  4017d4:	0399e021 	addu	gp,gp,t9
  4017d8:	27bdffe0 	addiu	sp,sp,-32
  4017dc:	afbc0010 	sw	gp,16(sp)
  4017e0:	afbf001c 	sw	ra,28(sp)
  4017e4:	8f8281b0 	lw	v0,-32336(gp)
  4017e8:	10400004 	beqz	v0,4017fc <_init+0x30>
  4017ec:	00000000 	nop
  4017f0:	8f9981b0 	lw	t9,-32336(gp)
  4017f4:	0320f809 	jalr	t9
  4017f8:	00000000 	nop
  4017fc:	04110001 	bal	401804 <_init+0x38>
  401800:	00000000 	nop
  401804:	3c1c0042 	lui	gp,0x42
  401808:	279c5520 	addiu	gp,gp,21792
  40180c:	8f998024 	lw	t9,-32732(gp)
  401810:	27391a64 	addiu	t9,t9,6756
  401814:	04110093 	bal	401a64 <frame_dummy>
  401818:	00000000 	nop
  40181c:	8fbc0010 	lw	gp,16(sp)
  401820:	04110001 	bal	401828 <_init+0x5c>
  401824:	00000000 	nop
  401828:	3c1c0042 	lui	gp,0x42
  40182c:	279c5520 	addiu	gp,gp,21792
  401830:	8f998028 	lw	t9,-32728(gp)
  401834:	2739aed0 	addiu	t9,t9,-20784
  401838:	041125a5 	bal	40aed0 <__do_global_ctors_aux>
  40183c:	00000000 	nop
  401840:	8fbf001c 	lw	ra,28(sp)
  401844:	03e00008 	jr	ra
  401848:	27bd0020 	addiu	sp,sp,32

Disassembly of section .text:

00401850 <main>:
  401850:	3c1c0042 	lui	gp,0x42
  401854:	279c5520 	addiu	gp,gp,21792
  401858:	27bdffd8 	addiu	sp,sp,-40
  40185c:	8f998030 	lw	t9,-32720(gp)
  401860:	afbc0018 	sw	gp,24(sp)
  401864:	afbf0024 	sw	ra,36(sp)
  401868:	0320f809 	jalr	t9
  40186c:	00002021 	move	a0,zero
  401870:	8fbc0018 	lw	gp,24(sp)
  401874:	14400005 	bnez	v0,40188c <main+0x3c>
  401878:	00001821 	move	v1,zero
  40187c:	8fbf0024 	lw	ra,36(sp)
  401880:	00601021 	move	v0,v1
  401884:	03e00008 	jr	ra
  401888:	27bd0028 	addiu	sp,sp,40
  40188c:	8f8281f0 	lw	v0,-32272(gp)
  401890:	8f998194 	lw	t9,-32364(gp)
  401894:	8c440000 	lw	a0,0(v0)
  401898:	3c020041 	lui	v0,0x41
  40189c:	2442b3e0 	addiu	v0,v0,-19488
  4018a0:	3c050041 	lui	a1,0x41
  4018a4:	3c060041 	lui	a2,0x41
  4018a8:	afa20010 	sw	v0,16(sp)
  4018ac:	24a5b3a4 	addiu	a1,a1,-19548
  4018b0:	24c6b3d0 	addiu	a2,a2,-19504
  4018b4:	0320f809 	jalr	t9
  4018b8:	2407009e 	li	a3,158
  4018bc:	0810061f 	j	40187c <main+0x2c>
  4018c0:	2403fffc 	li	v1,-4
	...

004018d0 <__start>:
  4018d0:	03e00021 	move	zero,ra
  4018d4:	04110001 	bal	4018dc <__start+0xc>
  4018d8:	00000000 	nop
  4018dc:	3c1c0042 	lui	gp,0x42
  4018e0:	279c5520 	addiu	gp,gp,21792
  4018e4:	0000f821 	move	ra,zero
  4018e8:	8f848018 	lw	a0,-32744(gp)
  4018ec:	8fa50000 	lw	a1,0(sp)
  4018f0:	27a60004 	addiu	a2,sp,4
  4018f4:	2401fff8 	li	at,-8
  4018f8:	03a1e824 	and	sp,sp,at
  4018fc:	27bdffe0 	addiu	sp,sp,-32
  401900:	8f87801c 	lw	a3,-32740(gp)
  401904:	8f888020 	lw	t0,-32736(gp)
  401908:	afa80010 	sw	t0,16(sp)
  40190c:	afa20014 	sw	v0,20(sp)
  401910:	afbd0018 	sw	sp,24(sp)
  401914:	8f998198 	lw	t9,-32360(gp)
  401918:	0320f809 	jalr	t9
  40191c:	00000000 	nop

00401920 <hlt>:
  401920:	1000ffff 	b	401920 <hlt>
  401924:	00000000 	nop
	...

00401930 <deregister_tm_clones>:
  401930:	3c040042 	lui	a0,0x42
  401934:	3c020042 	lui	v0,0x42
  401938:	2484d524 	addiu	a0,a0,-10972
  40193c:	2442d527 	addiu	v0,v0,-10969
  401940:	00441023 	subu	v0,v0,a0
  401944:	2c420007 	sltiu	v0,v0,7
  401948:	14400007 	bnez	v0,401968 <deregister_tm_clones+0x38>
  40194c:	3c1c0042 	lui	gp,0x42
  401950:	279c5520 	addiu	gp,gp,21792
  401954:	8f9981fc 	lw	t9,-32260(gp)
  401958:	13200003 	beqz	t9,401968 <deregister_tm_clones+0x38>
  40195c:	00000000 	nop
  401960:	03200008 	jr	t9
  401964:	00000000 	nop
  401968:	03e00008 	jr	ra
  40196c:	00000000 	nop

00401970 <register_tm_clones>:
  401970:	3c040042 	lui	a0,0x42
  401974:	3c050042 	lui	a1,0x42
  401978:	2484d524 	addiu	a0,a0,-10972
  40197c:	24a5d524 	addiu	a1,a1,-10972
  401980:	00a42823 	subu	a1,a1,a0
  401984:	00052883 	sra	a1,a1,0x2
  401988:	000517c2 	srl	v0,a1,0x1f
  40198c:	00452821 	addu	a1,v0,a1
  401990:	00052843 	sra	a1,a1,0x1
  401994:	10a00007 	beqz	a1,4019b4 <register_tm_clones+0x44>
  401998:	3c1c0042 	lui	gp,0x42
  40199c:	279c5520 	addiu	gp,gp,21792
  4019a0:	8f99814c 	lw	t9,-32436(gp)
  4019a4:	13200003 	beqz	t9,4019b4 <register_tm_clones+0x44>
  4019a8:	00000000 	nop
  4019ac:	03200008 	jr	t9
  4019b0:	00000000 	nop
  4019b4:	03e00008 	jr	ra
  4019b8:	00000000 	nop

004019bc <__do_global_dtors_aux>:
  4019bc:	3c020042 	lui	v0,0x42
  4019c0:	9043d740 	lbu	v1,-10432(v0)
  4019c4:	14600025 	bnez	v1,401a5c <__do_global_dtors_aux+0xa0>
  4019c8:	3c030042 	lui	v1,0x42
  4019cc:	27bdffd0 	addiu	sp,sp,-48
  4019d0:	afb20024 	sw	s2,36(sp)
  4019d4:	3c120042 	lui	s2,0x42
  4019d8:	2463d4c8 	addiu	v1,v1,-11064
  4019dc:	2652d4cc 	addiu	s2,s2,-11060
  4019e0:	02439023 	subu	s2,s2,v1
  4019e4:	00129083 	sra	s2,s2,0x2
  4019e8:	afb30028 	sw	s3,40(sp)
  4019ec:	afb10020 	sw	s1,32(sp)
  4019f0:	afb0001c 	sw	s0,28(sp)
  4019f4:	afbf002c 	sw	ra,44(sp)
  4019f8:	00408821 	move	s1,v0
  4019fc:	2652ffff 	addiu	s2,s2,-1
  401a00:	3c100042 	lui	s0,0x42
  401a04:	08100689 	j	401a24 <__do_global_dtors_aux+0x68>
  401a08:	00609821 	move	s3,v1
  401a0c:	ae03d744 	sw	v1,-10428(s0)
  401a10:	00031880 	sll	v1,v1,0x2
  401a14:	00731821 	addu	v1,v1,s3
  401a18:	8c790000 	lw	t9,0(v1)
  401a1c:	0320f809 	jalr	t9
  401a20:	00000000 	nop
  401a24:	8e03d744 	lw	v1,-10428(s0)
  401a28:	0072102b 	sltu	v0,v1,s2
  401a2c:	1440fff7 	bnez	v0,401a0c <__do_global_dtors_aux+0x50>
  401a30:	24630001 	addiu	v1,v1,1
  401a34:	0c10064c 	jal	401930 <deregister_tm_clones>
  401a38:	00000000 	nop
  401a3c:	24020001 	li	v0,1
  401a40:	8fbf002c 	lw	ra,44(sp)
  401a44:	8fb30028 	lw	s3,40(sp)
  401a48:	8fb20024 	lw	s2,36(sp)
  401a4c:	8fb0001c 	lw	s0,28(sp)
  401a50:	a222d740 	sb	v0,-10432(s1)
  401a54:	8fb10020 	lw	s1,32(sp)
  401a58:	27bd0030 	addiu	sp,sp,48
  401a5c:	03e00008 	jr	ra
  401a60:	00000000 	nop

00401a64 <frame_dummy>:
  401a64:	3c040042 	lui	a0,0x42
  401a68:	8c82d4d0 	lw	v0,-11056(a0)
  401a6c:	1040000e 	beqz	v0,401aa8 <frame_dummy+0x44>
  401a70:	00000000 	nop
  401a74:	3c1c0042 	lui	gp,0x42
  401a78:	27bdffe0 	addiu	sp,sp,-32
  401a7c:	279c5520 	addiu	gp,gp,21792
  401a80:	8f998160 	lw	t9,-32416(gp)
  401a84:	afbf001c 	sw	ra,28(sp)
  401a88:	afbc0010 	sw	gp,16(sp)
  401a8c:	13200005 	beqz	t9,401aa4 <frame_dummy+0x40>
  401a90:	8fbf001c 	lw	ra,28(sp)
  401a94:	0320f809 	jalr	t9
  401a98:	2484d4d0 	addiu	a0,a0,-11056
  401a9c:	8fbc0010 	lw	gp,16(sp)
  401aa0:	8fbf001c 	lw	ra,28(sp)
  401aa4:	27bd0020 	addiu	sp,sp,32
  401aa8:	0810065c 	j	401970 <register_tm_clones>
  401aac:	00000000 	nop

00401ab0 <show_soft_infor>:
  401ab0:	3c1c0042 	lui	gp,0x42
  401ab4:	27bdffd0 	addiu	sp,sp,-48
  401ab8:	279c5520 	addiu	gp,gp,21792
  401abc:	3c020041 	lui	v0,0x41
  401ac0:	8c43b264 	lw	v1,-19868(v0)
  401ac4:	afb10020 	sw	s1,32(sp)
  401ac8:	8f91802c 	lw	s1,-32724(gp)
  401acc:	afbf002c 	sw	ra,44(sp)
  401ad0:	afbc0010 	sw	gp,16(sp)
  401ad4:	afb30028 	sw	s3,40(sp)
  401ad8:	afb20024 	sw	s2,36(sp)
  401adc:	afb0001c 	sw	s0,28(sp)
  401ae0:	2442b264 	addiu	v0,v0,-19868
  401ae4:	26300092 	addiu	s0,s1,146
  401ae8:	aa230095 	swl	v1,149(s1)
  401aec:	8c450004 	lw	a1,4(v0)
  401af0:	3c060041 	lui	a2,0x41
  401af4:	24cab270 	addiu	t2,a2,-19856
  401af8:	ba030000 	swr	v1,0(s0)
  401afc:	3c040041 	lui	a0,0x41
  401b00:	8c83b27c 	lw	v1,-19844(a0)
  401b04:	8cc7b270 	lw	a3,-19856(a2)
  401b08:	aa050007 	swl	a1,7(s0)
  401b0c:	8d460004 	lw	a2,4(t2)
  401b10:	2484b27c 	addiu	a0,a0,-19844
  401b14:	94490008 	lhu	t1,8(v0)
  401b18:	9048000a 	lbu	t0,10(v0)
  401b1c:	ba050004 	swr	a1,4(s0)
  401b20:	90820005 	lbu	v0,5(a0)
  401b24:	90850004 	lbu	a1,4(a0)
  401b28:	ae2700a0 	sw	a3,160(s1)
  401b2c:	ae2600a4 	sw	a2,164(s1)
  401b30:	263200a9 	addiu	s2,s1,169
  401b34:	aa2300ac 	swl	v1,172(s1)
  401b38:	8f9981b4 	lw	t9,-32332(gp)
  401b3c:	3c040041 	lui	a0,0x41
  401b40:	a6090008 	sh	t1,8(s0)
  401b44:	a208000a 	sb	t0,10(s0)
  401b48:	ba430000 	swr	v1,0(s2)
  401b4c:	2484b280 	addiu	a0,a0,-19840
  401b50:	a2450004 	sb	a1,4(s2)
  401b54:	0320f809 	jalr	t9
  401b58:	a2420005 	sb	v0,5(s2)
  401b5c:	8fbc0010 	lw	gp,16(sp)
  401b60:	3c040041 	lui	a0,0x41
  401b64:	8f9981f8 	lw	t9,-32264(gp)
  401b68:	02202821 	move	a1,s1
  401b6c:	0320f809 	jalr	t9
  401b70:	2484b2b0 	addiu	a0,a0,-19792
  401b74:	8fbc0010 	lw	gp,16(sp)
  401b78:	3c040041 	lui	a0,0x41
  401b7c:	8f9981f8 	lw	t9,-32264(gp)
  401b80:	02402821 	move	a1,s2
  401b84:	0320f809 	jalr	t9
  401b88:	2484b2c4 	addiu	a0,a0,-19772
  401b8c:	8fbc0010 	lw	gp,16(sp)
  401b90:	3c040041 	lui	a0,0x41
  401b94:	8f9981f8 	lw	t9,-32264(gp)
  401b98:	3c050041 	lui	a1,0x41
  401b9c:	2484b2d4 	addiu	a0,a0,-19756
  401ba0:	0320f809 	jalr	t9
  401ba4:	24a5b2ec 	addiu	a1,a1,-19732
  401ba8:	8fbc0010 	lw	gp,16(sp)
  401bac:	3c040041 	lui	a0,0x41
  401bb0:	8f9981f8 	lw	t9,-32264(gp)
  401bb4:	26250089 	addiu	a1,s1,137
  401bb8:	0320f809 	jalr	t9
  401bbc:	2484b2f4 	addiu	a0,a0,-19724
  401bc0:	8fbc0010 	lw	gp,16(sp)
  401bc4:	263300a0 	addiu	s3,s1,160
  401bc8:	3c040041 	lui	a0,0x41
  401bcc:	8f9981f8 	lw	t9,-32264(gp)
  401bd0:	02603021 	move	a2,s3
  401bd4:	02002821 	move	a1,s0
  401bd8:	0320f809 	jalr	t9
  401bdc:	2484b30c 	addiu	a0,a0,-19700
  401be0:	8fbc0010 	lw	gp,16(sp)
  401be4:	8e2500b0 	lw	a1,176(s1)
  401be8:	8f9981f8 	lw	t9,-32264(gp)
  401bec:	3c040041 	lui	a0,0x41
  401bf0:	0320f809 	jalr	t9
  401bf4:	2484b324 	addiu	a0,a0,-19676
  401bf8:	8fbc0010 	lw	gp,16(sp)
  401bfc:	3c040041 	lui	a0,0x41
  401c00:	8f9981f8 	lw	t9,-32264(gp)
  401c04:	262500b4 	addiu	a1,s1,180
  401c08:	0320f809 	jalr	t9
  401c0c:	2484b33c 	addiu	a0,a0,-19652
  401c10:	8fbc0010 	lw	gp,16(sp)
  401c14:	8e2500c4 	lw	a1,196(s1)
  401c18:	8f9981f8 	lw	t9,-32264(gp)
  401c1c:	3c040041 	lui	a0,0x41
  401c20:	0320f809 	jalr	t9
  401c24:	2484b358 	addiu	a0,a0,-19624
  401c28:	8fbc0010 	lw	gp,16(sp)
  401c2c:	8fbf002c 	lw	ra,44(sp)
  401c30:	8fb30028 	lw	s3,40(sp)
  401c34:	8fb20024 	lw	s2,36(sp)
  401c38:	8fb10020 	lw	s1,32(sp)
  401c3c:	8fb0001c 	lw	s0,28(sp)
  401c40:	3c040041 	lui	a0,0x41
  401c44:	8f9981b4 	lw	t9,-32332(gp)
  401c48:	2484b374 	addiu	a0,a0,-19596
  401c4c:	03200008 	jr	t9
  401c50:	27bd0030 	addiu	sp,sp,48
	...

00401c60 <IsSoftwareRunning>:
  401c60:	3c1c0042 	lui	gp,0x42
  401c64:	27bdffc0 	addiu	sp,sp,-64
  401c68:	279c5520 	addiu	gp,gp,21792
  401c6c:	8f9981a4 	lw	t9,-32348(gp)
  401c70:	afb10038 	sw	s1,56(sp)
  401c74:	3c110041 	lui	s1,0x41
  401c78:	afb00034 	sw	s0,52(sp)
  401c7c:	afbc0018 	sw	gp,24(sp)
  401c80:	afbf003c 	sw	ra,60(sp)
  401c84:	2624b3f0 	addiu	a0,s1,-19472
  401c88:	24050102 	li	a1,258
  401c8c:	0320f809 	jalr	t9
  401c90:	240601a4 	li	a2,420
  401c94:	00408021 	move	s0,v0
  401c98:	0440003d 	bltz	v0,401d90 <IsSoftwareRunning+0x130>
  401c9c:	8fbc0018 	lw	gp,24(sp)
  401ca0:	8f998034 	lw	t9,-32716(gp)
  401ca4:	0320f809 	jalr	t9
  401ca8:	00402021 	move	a0,v0
  401cac:	04400024 	bltz	v0,401d40 <IsSoftwareRunning+0xe0>
  401cb0:	8fbc0018 	lw	gp,24(sp)
  401cb4:	8f998180 	lw	t9,-32384(gp)
  401cb8:	02002021 	move	a0,s0
  401cbc:	0320f809 	jalr	t9
  401cc0:	00002821 	move	a1,zero
  401cc4:	04400055 	bltz	v0,401e1c <IsSoftwareRunning+0x1bc>
  401cc8:	8fbc0018 	lw	gp,24(sp)
  401ccc:	8f9981c0 	lw	t9,-32320(gp)
  401cd0:	0320f809 	jalr	t9
  401cd4:	00000000 	nop
  401cd8:	8fbc0018 	lw	gp,24(sp)
  401cdc:	3c050041 	lui	a1,0x41
  401ce0:	8f998150 	lw	t9,-32432(gp)
  401ce4:	24a5b47c 	addiu	a1,a1,-19332
  401ce8:	00403021 	move	a2,v0
  401cec:	0320f809 	jalr	t9
  401cf0:	27a40020 	addiu	a0,sp,32
  401cf4:	8fbc0018 	lw	gp,24(sp)
  401cf8:	8f99819c 	lw	t9,-32356(gp)
  401cfc:	0320f809 	jalr	t9
  401d00:	27a40020 	addiu	a0,sp,32
  401d04:	8fbc0018 	lw	gp,24(sp)
  401d08:	02002021 	move	a0,s0
  401d0c:	8f998190 	lw	t9,-32368(gp)
  401d10:	27a50020 	addiu	a1,sp,32
  401d14:	0320f809 	jalr	t9
  401d18:	24460001 	addiu	a2,v0,1
  401d1c:	8fbc0018 	lw	gp,24(sp)
  401d20:	0440002e 	bltz	v0,401ddc <IsSoftwareRunning+0x17c>
  401d24:	00001821 	move	v1,zero
  401d28:	8fbf003c 	lw	ra,60(sp)
  401d2c:	8fb10038 	lw	s1,56(sp)
  401d30:	8fb00034 	lw	s0,52(sp)
  401d34:	00601021 	move	v0,v1
  401d38:	03e00008 	jr	ra
  401d3c:	27bd0040 	addiu	sp,sp,64
  401d40:	8f99817c 	lw	t9,-32388(gp)
  401d44:	0320f809 	jalr	t9
  401d48:	00000000 	nop
  401d4c:	8c420000 	lw	v0,0(v0)
  401d50:	2403000d 	li	v1,13
  401d54:	10430004 	beq	v0,v1,401d68 <IsSoftwareRunning+0x108>
  401d58:	8fbc0018 	lw	gp,24(sp)
  401d5c:	2403000b 	li	v1,11
  401d60:	1443003e 	bne	v0,v1,401e5c <IsSoftwareRunning+0x1fc>
  401d64:	8f8281f0 	lw	v0,-32272(gp)
  401d68:	8f998144 	lw	t9,-32444(gp)
  401d6c:	0320f809 	jalr	t9
  401d70:	02002021 	move	a0,s0
  401d74:	8fbf003c 	lw	ra,60(sp)
  401d78:	24030001 	li	v1,1
  401d7c:	8fb10038 	lw	s1,56(sp)
  401d80:	8fb00034 	lw	s0,52(sp)
  401d84:	00601021 	move	v0,v1
  401d88:	03e00008 	jr	ra
  401d8c:	27bd0040 	addiu	sp,sp,64
  401d90:	8f8281f0 	lw	v0,-32272(gp)
  401d94:	2631b3f0 	addiu	s1,s1,-19472
  401d98:	8c440000 	lw	a0,0(v0)
  401d9c:	3c020041 	lui	v0,0x41
  401da0:	2442b4b0 	addiu	v0,v0,-19280
  401da4:	3c050041 	lui	a1,0x41
  401da8:	3c060041 	lui	a2,0x41
  401dac:	8f998194 	lw	t9,-32364(gp)
  401db0:	afa20010 	sw	v0,16(sp)
  401db4:	afb10014 	sw	s1,20(sp)
  401db8:	24a5b404 	addiu	a1,a1,-19452
  401dbc:	24c6b428 	addiu	a2,a2,-19416
  401dc0:	2407002e 	li	a3,46
  401dc4:	0320f809 	jalr	t9
  401dc8:	00000000 	nop
  401dcc:	8fbc0018 	lw	gp,24(sp)
  401dd0:	8f9981ac 	lw	t9,-32340(gp)
  401dd4:	0320f809 	jalr	t9
  401dd8:	24040001 	li	a0,1
  401ddc:	8f8281f0 	lw	v0,-32272(gp)
  401de0:	8f998194 	lw	t9,-32364(gp)
  401de4:	8c440000 	lw	a0,0(v0)
  401de8:	3c020041 	lui	v0,0x41
  401dec:	2442b4b0 	addiu	v0,v0,-19280
  401df0:	3c050041 	lui	a1,0x41
  401df4:	3c060041 	lui	a2,0x41
  401df8:	afa20010 	sw	v0,16(sp)
  401dfc:	24a5b480 	addiu	a1,a1,-19328
  401e00:	24c6b428 	addiu	a2,a2,-19416
  401e04:	0320f809 	jalr	t9
  401e08:	24070047 	li	a3,71
  401e0c:	8fbc0018 	lw	gp,24(sp)
  401e10:	8f9981ac 	lw	t9,-32340(gp)
  401e14:	0320f809 	jalr	t9
  401e18:	24040003 	li	a0,3
  401e1c:	8f8281f0 	lw	v0,-32272(gp)
  401e20:	8f998194 	lw	t9,-32364(gp)
  401e24:	8c440000 	lw	a0,0(v0)
  401e28:	3c020041 	lui	v0,0x41
  401e2c:	2442b4b0 	addiu	v0,v0,-19280
  401e30:	3c050041 	lui	a1,0x41
  401e34:	3c060041 	lui	a2,0x41
  401e38:	afa20010 	sw	v0,16(sp)
  401e3c:	24a5b458 	addiu	a1,a1,-19368
  401e40:	24c6b428 	addiu	a2,a2,-19416
  401e44:	0320f809 	jalr	t9
  401e48:	2407003f 	li	a3,63
  401e4c:	8fbc0018 	lw	gp,24(sp)
  401e50:	8f9981ac 	lw	t9,-32340(gp)
  401e54:	0320f809 	jalr	t9
  401e58:	24040002 	li	a0,2
  401e5c:	2631b3f0 	addiu	s1,s1,-19472
  401e60:	8c440000 	lw	a0,0(v0)
  401e64:	3c020041 	lui	v0,0x41
  401e68:	2442b4b0 	addiu	v0,v0,-19280
  401e6c:	3c050041 	lui	a1,0x41
  401e70:	3c060041 	lui	a2,0x41
  401e74:	8f998194 	lw	t9,-32364(gp)
  401e78:	afa20010 	sw	v0,16(sp)
  401e7c:	afb10014 	sw	s1,20(sp)
  401e80:	24a5b434 	addiu	a1,a1,-19404
  401e84:	24c6b428 	addiu	a2,a2,-19416
  401e88:	08100771 	j	401dc4 <IsSoftwareRunning+0x164>
  401e8c:	24070037 	li	a3,55

00401e90 <rstrip>:
  401e90:	3c1c0042 	lui	gp,0x42
  401e94:	279c5520 	addiu	gp,gp,21792
  401e98:	27bdffd8 	addiu	sp,sp,-40
  401e9c:	8f99819c 	lw	t9,-32356(gp)
  401ea0:	afb10020 	sw	s1,32(sp)
  401ea4:	afb0001c 	sw	s0,28(sp)
  401ea8:	afbc0010 	sw	gp,16(sp)
  401eac:	afbf0024 	sw	ra,36(sp)
  401eb0:	0320f809 	jalr	t9
  401eb4:	00808821 	move	s1,a0
  401eb8:	02228021 	addu	s0,s1,v0
  401ebc:	0230102b 	sltu	v0,s1,s0
  401ec0:	10400012 	beqz	v0,401f0c <rstrip+0x7c>
  401ec4:	8fbc0010 	lw	gp,16(sp)
  401ec8:	8f998140 	lw	t9,-32448(gp)
  401ecc:	0320f809 	jalr	t9
  401ed0:	2610ffff 	addiu	s0,s0,-1
  401ed4:	081007bb 	j	401eec <rstrip+0x5c>
  401ed8:	92030000 	lbu	v1,0(s0)
  401edc:	1211000b 	beq	s0,s1,401f0c <rstrip+0x7c>
  401ee0:	a2000000 	sb	zero,0(s0)
  401ee4:	2610ffff 	addiu	s0,s0,-1
  401ee8:	92030000 	lbu	v1,0(s0)
  401eec:	8c450000 	lw	a1,0(v0)
  401ef0:	00031840 	sll	v1,v1,0x1
  401ef4:	00a31821 	addu	v1,a1,v1
  401ef8:	94630000 	lhu	v1,0(v1)
  401efc:	30632000 	andi	v1,v1,0x2000
  401f00:	3063ffff 	andi	v1,v1,0xffff
  401f04:	1460fff5 	bnez	v1,401edc <rstrip+0x4c>
  401f08:	00000000 	nop
  401f0c:	8fbf0024 	lw	ra,36(sp)
  401f10:	02201021 	move	v0,s1
  401f14:	8fb0001c 	lw	s0,28(sp)
  401f18:	8fb10020 	lw	s1,32(sp)
  401f1c:	03e00008 	jr	ra
  401f20:	27bd0028 	addiu	sp,sp,40

00401f24 <lskip>:
  401f24:	27bdffd8 	addiu	sp,sp,-40
  401f28:	3c1c0042 	lui	gp,0x42
  401f2c:	afb10020 	sw	s1,32(sp)
  401f30:	80910000 	lb	s1,0(a0)
  401f34:	279c5520 	addiu	gp,gp,21792
  401f38:	afb0001c 	sw	s0,28(sp)
  401f3c:	afbf0024 	sw	ra,36(sp)
  401f40:	afbc0010 	sw	gp,16(sp)
  401f44:	12200011 	beqz	s1,401f8c <lskip+0x68>
  401f48:	00808021 	move	s0,a0
  401f4c:	8f998140 	lw	t9,-32448(gp)
  401f50:	0320f809 	jalr	t9
  401f54:	323100ff 	andi	s1,s1,0xff
  401f58:	081007db 	j	401f6c <lskip+0x48>
  401f5c:	8c430000 	lw	v1,0(v0)
  401f60:	82110000 	lb	s1,0(s0)
  401f64:	12200009 	beqz	s1,401f8c <lskip+0x68>
  401f68:	323100ff 	andi	s1,s1,0xff
  401f6c:	00118840 	sll	s1,s1,0x1
  401f70:	00718821 	addu	s1,v1,s1
  401f74:	96220000 	lhu	v0,0(s1)
  401f78:	30422000 	andi	v0,v0,0x2000
  401f7c:	3042ffff 	andi	v0,v0,0xffff
  401f80:	1440fff7 	bnez	v0,401f60 <lskip+0x3c>
  401f84:	26100001 	addiu	s0,s0,1
  401f88:	2610ffff 	addiu	s0,s0,-1
  401f8c:	8fbf0024 	lw	ra,36(sp)
  401f90:	02001021 	move	v0,s0
  401f94:	8fb10020 	lw	s1,32(sp)
  401f98:	8fb0001c 	lw	s0,28(sp)
  401f9c:	03e00008 	jr	ra
  401fa0:	27bd0028 	addiu	sp,sp,40

00401fa4 <ini_parse_file>:
  401fa4:	3c1c0042 	lui	gp,0x42
  401fa8:	279c5520 	addiu	gp,gp,21792
  401fac:	27bdfcc0 	addiu	sp,sp,-832
  401fb0:	8f998184 	lw	t9,-32380(gp)
  401fb4:	afbf033c 	sw	ra,828(sp)
  401fb8:	afb70334 	sw	s7,820(sp)
  401fbc:	afb5032c 	sw	s5,812(sp)
  401fc0:	afb40328 	sw	s4,808(sp)
  401fc4:	afb30324 	sw	s3,804(sp)
  401fc8:	afb20320 	sw	s2,800(sp)
  401fcc:	afb1031c 	sw	s1,796(sp)
  401fd0:	afbc0010 	sw	gp,16(sp)
  401fd4:	afa50344 	sw	a1,836(sp)
  401fd8:	afa60348 	sw	a2,840(sp)
  401fdc:	00002821 	move	a1,zero
  401fe0:	240600fc 	li	a2,252
  401fe4:	afbe0338 	sw	s8,824(sp)
  401fe8:	afb60330 	sw	s6,816(sp)
  401fec:	afb00318 	sw	s0,792(sp)
  401ff0:	00809821 	move	s3,a0
  401ff4:	afa00118 	sw	zero,280(sp)
  401ff8:	0320f809 	jalr	t9
  401ffc:	27a4011c 	addiu	a0,sp,284
  402000:	8fbc0010 	lw	gp,16(sp)
  402004:	27a4001c 	addiu	a0,sp,28
  402008:	8f998184 	lw	t9,-32380(gp)
  40200c:	00002821 	move	a1,zero
  402010:	240600fc 	li	a2,252
  402014:	0320f809 	jalr	t9
  402018:	afa00018 	sw	zero,24(sp)
  40201c:	8fbc0010 	lw	gp,16(sp)
  402020:	00009021 	move	s2,zero
  402024:	27b70218 	addiu	s7,sp,536
  402028:	2411003b 	li	s1,59
  40202c:	24140023 	li	s4,35
  402030:	2415005b 	li	s5,91
  402034:	8f9981e4 	lw	t9,-32284(gp)
  402038:	02e02021 	move	a0,s7
  40203c:	24050100 	li	a1,256
  402040:	0320f809 	jalr	t9
  402044:	02603021 	move	a2,s3
  402048:	104000c3 	beqz	v0,402358 <ini_parse_file+0x3b4>
  40204c:	8fbc0010 	lw	gp,16(sp)
  402050:	8f99819c 	lw	t9,-32356(gp)
  402054:	0320f809 	jalr	t9
  402058:	02e02021 	move	a0,s7
  40205c:	02e28021 	addu	s0,s7,v0
  402060:	02f0102b 	sltu	v0,s7,s0
  402064:	8fbc0010 	lw	gp,16(sp)
  402068:	10400012 	beqz	v0,4020b4 <ini_parse_file+0x110>
  40206c:	26520001 	addiu	s2,s2,1
  402070:	8f998140 	lw	t9,-32448(gp)
  402074:	0320f809 	jalr	t9
  402078:	2610ffff 	addiu	s0,s0,-1
  40207c:	8c440000 	lw	a0,0(v0)
  402080:	08100825 	j	402094 <ini_parse_file+0xf0>
  402084:	8fbc0010 	lw	gp,16(sp)
  402088:	1217000a 	beq	s0,s7,4020b4 <ini_parse_file+0x110>
  40208c:	a2000000 	sb	zero,0(s0)
  402090:	2610ffff 	addiu	s0,s0,-1
  402094:	92020000 	lbu	v0,0(s0)
  402098:	00021040 	sll	v0,v0,0x1
  40209c:	00821021 	addu	v0,a0,v0
  4020a0:	94420000 	lhu	v0,0(v0)
  4020a4:	30422000 	andi	v0,v0,0x2000
  4020a8:	3042ffff 	andi	v0,v0,0xffff
  4020ac:	1440fff6 	bnez	v0,402088 <ini_parse_file+0xe4>
  4020b0:	00000000 	nop
  4020b4:	83b00218 	lb	s0,536(sp)
  4020b8:	1200ffde 	beqz	s0,402034 <ini_parse_file+0x90>
  4020bc:	8f998140 	lw	t9,-32448(gp)
  4020c0:	0320f809 	jalr	t9
  4020c4:	02e0f021 	move	s8,s7
  4020c8:	8c560000 	lw	s6,0(v0)
  4020cc:	08100838 	j	4020e0 <ini_parse_file+0x13c>
  4020d0:	8fbc0010 	lw	gp,16(sp)
  4020d4:	83d00000 	lb	s0,0(s8)
  4020d8:	1200ffd7 	beqz	s0,402038 <ini_parse_file+0x94>
  4020dc:	8f9981e4 	lw	t9,-32284(gp)
  4020e0:	320200ff 	andi	v0,s0,0xff
  4020e4:	00021040 	sll	v0,v0,0x1
  4020e8:	02c21021 	addu	v0,s6,v0
  4020ec:	94420000 	lhu	v0,0(v0)
  4020f0:	30422000 	andi	v0,v0,0x2000
  4020f4:	3042ffff 	andi	v0,v0,0xffff
  4020f8:	1440fff6 	bnez	v0,4020d4 <ini_parse_file+0x130>
  4020fc:	27de0001 	addiu	s8,s8,1
  402100:	27deffff 	addiu	s8,s8,-1
  402104:	1211ffcc 	beq	s0,s1,402038 <ini_parse_file+0x94>
  402108:	8f9981e4 	lw	t9,-32284(gp)
  40210c:	1214ffcb 	beq	s0,s4,40203c <ini_parse_file+0x98>
  402110:	02e02021 	move	a0,s7
  402114:	1200ffca 	beqz	s0,402040 <ini_parse_file+0x9c>
  402118:	24050100 	li	a1,256
  40211c:	1215009c 	beq	s0,s5,402390 <ini_parse_file+0x3ec>
  402120:	00000000 	nop
  402124:	83c40000 	lb	a0,0(s8)
  402128:	108000cc 	beqz	a0,40245c <ini_parse_file+0x4b8>
  40212c:	00000000 	nop
  402130:	2402003d 	li	v0,61
  402134:	108200cc 	beq	a0,v0,402468 <ini_parse_file+0x4c4>
  402138:	00801021 	move	v0,a0
  40213c:	03c08021 	move	s0,s8
  402140:	2407003d 	li	a3,61
  402144:	304200ff 	andi	v0,v0,0xff
  402148:	00021040 	sll	v0,v0,0x1
  40214c:	02c21021 	addu	v0,s6,v0
  402150:	94450000 	lhu	a1,0(v0)
  402154:	26100001 	addiu	s0,s0,1
  402158:	82020000 	lb	v0,0(s0)
  40215c:	30a52000 	andi	a1,a1,0x2000
  402160:	10400007 	beqz	v0,402180 <ini_parse_file+0x1dc>
  402164:	30a5ffff 	andi	a1,a1,0xffff
  402168:	1047001c 	beq	v0,a3,4021dc <ini_parse_file+0x238>
  40216c:	00000000 	nop
  402170:	10a0fff4 	beqz	a1,402144 <ini_parse_file+0x1a0>
  402174:	00000000 	nop
  402178:	1451fff3 	bne	v0,s1,402148 <ini_parse_file+0x1a4>
  40217c:	304200ff 	andi	v0,v0,0xff
  402180:	2402003a 	li	v0,58
  402184:	108200a4 	beq	a0,v0,402418 <ini_parse_file+0x474>
  402188:	03c08021 	move	s0,s8
  40218c:	2405003a 	li	a1,58
  402190:	308400ff 	andi	a0,a0,0xff
  402194:	00042040 	sll	a0,a0,0x1
  402198:	02c42021 	addu	a0,s6,a0
  40219c:	94820000 	lhu	v0,0(a0)
  4021a0:	26100001 	addiu	s0,s0,1
  4021a4:	82040000 	lb	a0,0(s0)
  4021a8:	30422000 	andi	v0,v0,0x2000
  4021ac:	1080009f 	beqz	a0,40242c <ini_parse_file+0x488>
  4021b0:	3042ffff 	andi	v0,v0,0xffff
  4021b4:	10850097 	beq	a0,a1,402414 <ini_parse_file+0x470>
  4021b8:	00000000 	nop
  4021bc:	1040fff4 	beqz	v0,402190 <ini_parse_file+0x1ec>
  4021c0:	00000000 	nop
  4021c4:	1491fff3 	bne	a0,s1,402194 <ini_parse_file+0x1f0>
  4021c8:	308400ff 	andi	a0,a0,0xff
  4021cc:	2402003b 	li	v0,59
  4021d0:	2404003a 	li	a0,58
  4021d4:	1444ff98 	bne	v0,a0,402038 <ini_parse_file+0x94>
  4021d8:	8f9981e4 	lw	t9,-32284(gp)
  4021dc:	8f99819c 	lw	t9,-32356(gp)
  4021e0:	03c02021 	move	a0,s8
  4021e4:	0320f809 	jalr	t9
  4021e8:	a2000000 	sb	zero,0(s0)
  4021ec:	03c21021 	addu	v0,s8,v0
  4021f0:	03c2202b 	sltu	a0,s8,v0
  4021f4:	14800005 	bnez	a0,40220c <ini_parse_file+0x268>
  4021f8:	8fbc0010 	lw	gp,16(sp)
  4021fc:	0810088d 	j	402234 <ini_parse_file+0x290>
  402200:	82020001 	lb	v0,1(s0)
  402204:	105e000a 	beq	v0,s8,402230 <ini_parse_file+0x28c>
  402208:	a0400000 	sb	zero,0(v0)
  40220c:	2442ffff 	addiu	v0,v0,-1
  402210:	90440000 	lbu	a0,0(v0)
  402214:	00042040 	sll	a0,a0,0x1
  402218:	02c42021 	addu	a0,s6,a0
  40221c:	94840000 	lhu	a0,0(a0)
  402220:	30842000 	andi	a0,a0,0x2000
  402224:	3084ffff 	andi	a0,a0,0xffff
  402228:	1480fff6 	bnez	a0,402204 <ini_parse_file+0x260>
  40222c:	00000000 	nop
  402230:	82020001 	lb	v0,1(s0)
  402234:	14400006 	bnez	v0,402250 <ini_parse_file+0x2ac>
  402238:	26100001 	addiu	s0,s0,1
  40223c:	081008af 	j	4022bc <ini_parse_file+0x318>
  402240:	8f99819c 	lw	t9,-32356(gp)
  402244:	82020000 	lb	v0,0(s0)
  402248:	1040001c 	beqz	v0,4022bc <ini_parse_file+0x318>
  40224c:	8f99819c 	lw	t9,-32356(gp)
  402250:	304200ff 	andi	v0,v0,0xff
  402254:	00021040 	sll	v0,v0,0x1
  402258:	02c21021 	addu	v0,s6,v0
  40225c:	94420000 	lhu	v0,0(v0)
  402260:	30422000 	andi	v0,v0,0x2000
  402264:	3042ffff 	andi	v0,v0,0xffff
  402268:	1440fff6 	bnez	v0,402244 <ini_parse_file+0x2a0>
  40226c:	26100001 	addiu	s0,s0,1
  402270:	2610ffff 	addiu	s0,s0,-1
  402274:	82020000 	lb	v0,0(s0)
  402278:	1040000f 	beqz	v0,4022b8 <ini_parse_file+0x314>
  40227c:	02002021 	move	a0,s0
  402280:	304200ff 	andi	v0,v0,0xff
  402284:	00021040 	sll	v0,v0,0x1
  402288:	02c21021 	addu	v0,s6,v0
  40228c:	94450000 	lhu	a1,0(v0)
  402290:	24840001 	addiu	a0,a0,1
  402294:	80820000 	lb	v0,0(a0)
  402298:	30a52000 	andi	a1,a1,0x2000
  40229c:	10400006 	beqz	v0,4022b8 <ini_parse_file+0x314>
  4022a0:	30a5ffff 	andi	a1,a1,0xffff
  4022a4:	10a0fff6 	beqz	a1,402280 <ini_parse_file+0x2dc>
  4022a8:	00000000 	nop
  4022ac:	1451fff5 	bne	v0,s1,402284 <ini_parse_file+0x2e0>
  4022b0:	304200ff 	andi	v0,v0,0xff
  4022b4:	a0800000 	sb	zero,0(a0)
  4022b8:	8f99819c 	lw	t9,-32356(gp)
  4022bc:	0320f809 	jalr	t9
  4022c0:	02002021 	move	a0,s0
  4022c4:	02021021 	addu	v0,s0,v0
  4022c8:	0202202b 	sltu	a0,s0,v0
  4022cc:	14800005 	bnez	a0,4022e4 <ini_parse_file+0x340>
  4022d0:	8fbc0010 	lw	gp,16(sp)
  4022d4:	081008c3 	j	40230c <ini_parse_file+0x368>
  4022d8:	8f998178 	lw	t9,-32392(gp)
  4022dc:	1050000a 	beq	v0,s0,402308 <ini_parse_file+0x364>
  4022e0:	a0400000 	sb	zero,0(v0)
  4022e4:	2442ffff 	addiu	v0,v0,-1
  4022e8:	90440000 	lbu	a0,0(v0)
  4022ec:	00042040 	sll	a0,a0,0x1
  4022f0:	02c42021 	addu	a0,s6,a0
  4022f4:	94840000 	lhu	a0,0(a0)
  4022f8:	30842000 	andi	a0,a0,0x2000
  4022fc:	3084ffff 	andi	a0,a0,0xffff
  402300:	1480fff6 	bnez	a0,4022dc <ini_parse_file+0x338>
  402304:	00000000 	nop
  402308:	8f998178 	lw	t9,-32392(gp)
  40230c:	27a40018 	addiu	a0,sp,24
  402310:	03c02821 	move	a1,s8
  402314:	0320f809 	jalr	t9
  402318:	24060100 	li	a2,256
  40231c:	8fa40348 	lw	a0,840(sp)
  402320:	8fb90344 	lw	t9,836(sp)
  402324:	27a50118 	addiu	a1,sp,280
  402328:	03c03021 	move	a2,s8
  40232c:	02003821 	move	a3,s0
  402330:	0320f809 	jalr	t9
  402334:	a3a00117 	sb	zero,279(sp)
  402338:	8fbc0010 	lw	gp,16(sp)
  40233c:	02e02021 	move	a0,s7
  402340:	8f9981e4 	lw	t9,-32284(gp)
  402344:	24050100 	li	a1,256
  402348:	0320f809 	jalr	t9
  40234c:	02603021 	move	a2,s3
  402350:	1440ff3f 	bnez	v0,402050 <ini_parse_file+0xac>
  402354:	8fbc0010 	lw	gp,16(sp)
  402358:	00009021 	move	s2,zero
  40235c:	8fbf033c 	lw	ra,828(sp)
  402360:	02401021 	move	v0,s2
  402364:	8fbe0338 	lw	s8,824(sp)
  402368:	8fb70334 	lw	s7,820(sp)
  40236c:	8fb60330 	lw	s6,816(sp)
  402370:	8fb5032c 	lw	s5,812(sp)
  402374:	8fb40328 	lw	s4,808(sp)
  402378:	8fb30324 	lw	s3,804(sp)
  40237c:	8fb20320 	lw	s2,800(sp)
  402380:	8fb1031c 	lw	s1,796(sp)
  402384:	8fb00318 	lw	s0,792(sp)
  402388:	03e00008 	jr	ra
  40238c:	27bd0340 	addiu	sp,sp,832
  402390:	83c20001 	lb	v0,1(s8)
  402394:	10400014 	beqz	v0,4023e8 <ini_parse_file+0x444>
  402398:	27c50001 	addiu	a1,s8,1
  40239c:	2404005d 	li	a0,93
  4023a0:	10440024 	beq	v0,a0,402434 <ini_parse_file+0x490>
  4023a4:	2408005d 	li	t0,93
  4023a8:	00a02021 	move	a0,a1
  4023ac:	304200ff 	andi	v0,v0,0xff
  4023b0:	00021040 	sll	v0,v0,0x1
  4023b4:	02c21021 	addu	v0,s6,v0
  4023b8:	94470000 	lhu	a3,0(v0)
  4023bc:	24840001 	addiu	a0,a0,1
  4023c0:	80820000 	lb	v0,0(a0)
  4023c4:	30e72000 	andi	a3,a3,0x2000
  4023c8:	10400007 	beqz	v0,4023e8 <ini_parse_file+0x444>
  4023cc:	30e7ffff 	andi	a3,a3,0xffff
  4023d0:	1048001a 	beq	v0,t0,40243c <ini_parse_file+0x498>
  4023d4:	8f998178 	lw	t9,-32392(gp)
  4023d8:	10e0fff4 	beqz	a3,4023ac <ini_parse_file+0x408>
  4023dc:	00000000 	nop
  4023e0:	1451fff3 	bne	v0,s1,4023b0 <ini_parse_file+0x40c>
  4023e4:	304200ff 	andi	v0,v0,0xff
  4023e8:	8f9981f8 	lw	t9,-32264(gp)
  4023ec:	3c040041 	lui	a0,0x41
  4023f0:	3c050041 	lui	a1,0x41
  4023f4:	3c060041 	lui	a2,0x41
  4023f8:	2484b4d0 	addiu	a0,a0,-19248
  4023fc:	24a5b4f8 	addiu	a1,a1,-19208
  402400:	24c6b500 	addiu	a2,a2,-19200
  402404:	0320f809 	jalr	t9
  402408:	24070065 	li	a3,101
  40240c:	081008d8 	j	402360 <ini_parse_file+0x3bc>
  402410:	8fbf033c 	lw	ra,828(sp)
  402414:	2402003a 	li	v0,58
  402418:	2404003a 	li	a0,58
  40241c:	1444ff05 	bne	v0,a0,402034 <ini_parse_file+0x90>
  402420:	8f99819c 	lw	t9,-32356(gp)
  402424:	08100879 	j	4021e4 <ini_parse_file+0x240>
  402428:	03c02021 	move	a0,s8
  40242c:	08100906 	j	402418 <ini_parse_file+0x474>
  402430:	00001021 	move	v0,zero
  402434:	00a02021 	move	a0,a1
  402438:	8f998178 	lw	t9,-32392(gp)
  40243c:	a0800000 	sb	zero,0(a0)
  402440:	24060100 	li	a2,256
  402444:	0320f809 	jalr	t9
  402448:	27a40118 	addiu	a0,sp,280
  40244c:	8fbc0010 	lw	gp,16(sp)
  402450:	a3a00217 	sb	zero,535(sp)
  402454:	0810080d 	j	402034 <ini_parse_file+0x90>
  402458:	a3a00018 	sb	zero,24(sp)
  40245c:	03c08021 	move	s0,s8
  402460:	08100906 	j	402418 <ini_parse_file+0x474>
  402464:	00001021 	move	v0,zero
  402468:	08100877 	j	4021dc <ini_parse_file+0x238>
  40246c:	03c08021 	move	s0,s8

00402470 <ini_parse>:
  402470:	3c1c0042 	lui	gp,0x42
  402474:	27bdffd8 	addiu	sp,sp,-40
  402478:	279c5520 	addiu	gp,gp,21792
  40247c:	8f9981f4 	lw	t9,-32268(gp)
  402480:	afb1001c 	sw	s1,28(sp)
  402484:	00a08821 	move	s1,a1
  402488:	3c050041 	lui	a1,0x41
  40248c:	afb20020 	sw	s2,32(sp)
  402490:	afb00018 	sw	s0,24(sp)
  402494:	afbf0024 	sw	ra,36(sp)
  402498:	afbc0010 	sw	gp,16(sp)
  40249c:	24a5bd60 	addiu	a1,a1,-17056
  4024a0:	0320f809 	jalr	t9
  4024a4:	00c09021 	move	s2,a2
  4024a8:	10400011 	beqz	v0,4024f0 <ini_parse+0x80>
  4024ac:	00408021 	move	s0,v0
  4024b0:	00402021 	move	a0,v0
  4024b4:	02202821 	move	a1,s1
  4024b8:	0c1007e9 	jal	401fa4 <ini_parse_file>
  4024bc:	02403021 	move	a2,s2
  4024c0:	8fbc0010 	lw	gp,16(sp)
  4024c4:	02002021 	move	a0,s0
  4024c8:	8f99815c 	lw	t9,-32420(gp)
  4024cc:	0320f809 	jalr	t9
  4024d0:	00408021 	move	s0,v0
  4024d4:	8fbf0024 	lw	ra,36(sp)
  4024d8:	02001021 	move	v0,s0
  4024dc:	8fb20020 	lw	s2,32(sp)
  4024e0:	8fb1001c 	lw	s1,28(sp)
  4024e4:	8fb00018 	lw	s0,24(sp)
  4024e8:	03e00008 	jr	ra
  4024ec:	27bd0028 	addiu	sp,sp,40
  4024f0:	08100935 	j	4024d4 <ini_parse+0x64>
  4024f4:	2410ffff 	li	s0,-1
	...

00402500 <lockfile>:
  402500:	3c1c0042 	lui	gp,0x42
  402504:	279c5520 	addiu	gp,gp,21792
  402508:	27bdffb8 	addiu	sp,sp,-72
  40250c:	8f99818c 	lw	t9,-32372(gp)
  402510:	24020001 	li	v0,1
  402514:	27a60018 	addiu	a2,sp,24
  402518:	afbf0044 	sw	ra,68(sp)
  40251c:	afbc0010 	sw	gp,16(sp)
  402520:	24050006 	li	a1,6
  402524:	a7a20018 	sh	v0,24(sp)
  402528:	afa0001c 	sw	zero,28(sp)
  40252c:	a7a0001a 	sh	zero,26(sp)
  402530:	0320f809 	jalr	t9
  402534:	afa00020 	sw	zero,32(sp)
  402538:	8fbf0044 	lw	ra,68(sp)
  40253c:	03e00008 	jr	ra
  402540:	27bd0048 	addiu	sp,sp,72
	...

00402550 <thread_input_output_loop_check>:
  402550:	3c1c0042 	lui	gp,0x42
  402554:	279c5520 	addiu	gp,gp,21792
  402558:	27bdffe0 	addiu	sp,sp,-32
  40255c:	8f998038 	lw	t9,-32712(gp)
  402560:	afbf001c 	sw	ra,28(sp)
  402564:	afbc0010 	sw	gp,16(sp)
  402568:	0320f809 	jalr	t9
  40256c:	00000000 	nop
  402570:	8fbf001c 	lw	ra,28(sp)
  402574:	00001021 	move	v0,zero
  402578:	03e00008 	jr	ra
  40257c:	27bd0020 	addiu	sp,sp,32

00402580 <thread_sys_fault_led>:
  402580:	3c1c0042 	lui	gp,0x42
  402584:	279c5520 	addiu	gp,gp,21792
  402588:	27bdffe0 	addiu	sp,sp,-32
  40258c:	8f99803c 	lw	t9,-32708(gp)
  402590:	afbf001c 	sw	ra,28(sp)
  402594:	afbc0010 	sw	gp,16(sp)
  402598:	0320f809 	jalr	t9
  40259c:	00000000 	nop
  4025a0:	8fbf001c 	lw	ra,28(sp)
  4025a4:	00001021 	move	v0,zero
  4025a8:	03e00008 	jr	ra
  4025ac:	27bd0020 	addiu	sp,sp,32

004025b0 <thread_network_connect_led>:
  4025b0:	3c1c0042 	lui	gp,0x42
  4025b4:	279c5520 	addiu	gp,gp,21792
  4025b8:	27bdffe0 	addiu	sp,sp,-32
  4025bc:	8f998040 	lw	t9,-32704(gp)
  4025c0:	afbf001c 	sw	ra,28(sp)
  4025c4:	afbc0010 	sw	gp,16(sp)
  4025c8:	0320f809 	jalr	t9
  4025cc:	00000000 	nop
  4025d0:	8fbf001c 	lw	ra,28(sp)
  4025d4:	00001021 	move	v0,zero
  4025d8:	03e00008 	jr	ra
  4025dc:	27bd0020 	addiu	sp,sp,32

004025e0 <thread_modbus_ctrl_lane>:
  4025e0:	3c1c0042 	lui	gp,0x42
  4025e4:	279c5520 	addiu	gp,gp,21792
  4025e8:	27bdffe0 	addiu	sp,sp,-32
  4025ec:	8f998044 	lw	t9,-32700(gp)
  4025f0:	afbf001c 	sw	ra,28(sp)
  4025f4:	afbc0010 	sw	gp,16(sp)
  4025f8:	0320f809 	jalr	t9
  4025fc:	00000000 	nop
  402600:	8fbf001c 	lw	ra,28(sp)
  402604:	00001021 	move	v0,zero
  402608:	03e00008 	jr	ra
  40260c:	27bd0020 	addiu	sp,sp,32

00402610 <thread_modbus_reg_update>:
  402610:	3c1c0042 	lui	gp,0x42
  402614:	279c5520 	addiu	gp,gp,21792
  402618:	27bdffe0 	addiu	sp,sp,-32
  40261c:	8f998048 	lw	t9,-32696(gp)
  402620:	afbf001c 	sw	ra,28(sp)
  402624:	afbc0010 	sw	gp,16(sp)
  402628:	0320f809 	jalr	t9
  40262c:	00000000 	nop
  402630:	8fbf001c 	lw	ra,28(sp)
  402634:	00001021 	move	v0,zero
  402638:	03e00008 	jr	ra
  40263c:	27bd0020 	addiu	sp,sp,32

00402640 <thread_modbus_server>:
  402640:	3c1c0042 	lui	gp,0x42
  402644:	279c5520 	addiu	gp,gp,21792
  402648:	27bdffe0 	addiu	sp,sp,-32
  40264c:	8f99804c 	lw	t9,-32692(gp)
  402650:	afbf001c 	sw	ra,28(sp)
  402654:	afbc0010 	sw	gp,16(sp)
  402658:	0320f809 	jalr	t9
  40265c:	00000000 	nop
  402660:	8fbf001c 	lw	ra,28(sp)
  402664:	00001021 	move	v0,zero
  402668:	03e00008 	jr	ra
  40266c:	27bd0020 	addiu	sp,sp,32

00402670 <thread_local_output>:
  402670:	3c1c0042 	lui	gp,0x42
  402674:	279c5520 	addiu	gp,gp,21792
  402678:	27bdffe0 	addiu	sp,sp,-32
  40267c:	8f998050 	lw	t9,-32688(gp)
  402680:	afbf001c 	sw	ra,28(sp)
  402684:	afbc0010 	sw	gp,16(sp)
  402688:	0320f809 	jalr	t9
  40268c:	00000000 	nop
  402690:	8fbf001c 	lw	ra,28(sp)
  402694:	00001021 	move	v0,zero
  402698:	03e00008 	jr	ra
  40269c:	27bd0020 	addiu	sp,sp,32

004026a0 <thread_local_input>:
  4026a0:	3c1c0042 	lui	gp,0x42
  4026a4:	279c5520 	addiu	gp,gp,21792
  4026a8:	27bdffe0 	addiu	sp,sp,-32
  4026ac:	8f998054 	lw	t9,-32684(gp)
  4026b0:	afbf001c 	sw	ra,28(sp)
  4026b4:	afbc0010 	sw	gp,16(sp)
  4026b8:	0320f809 	jalr	t9
  4026bc:	00000000 	nop
  4026c0:	8fbf001c 	lw	ra,28(sp)
  4026c4:	00001021 	move	v0,zero
  4026c8:	03e00008 	jr	ra
  4026cc:	27bd0020 	addiu	sp,sp,32

004026d0 <thread_button_press>:
  4026d0:	3c1c0042 	lui	gp,0x42
  4026d4:	279c5520 	addiu	gp,gp,21792
  4026d8:	27bdffe0 	addiu	sp,sp,-32
  4026dc:	8f998058 	lw	t9,-32680(gp)
  4026e0:	afbf001c 	sw	ra,28(sp)
  4026e4:	afbc0010 	sw	gp,16(sp)
  4026e8:	0320f809 	jalr	t9
  4026ec:	00000000 	nop
  4026f0:	8fbf001c 	lw	ra,28(sp)
  4026f4:	00001021 	move	v0,zero
  4026f8:	03e00008 	jr	ra
  4026fc:	27bd0020 	addiu	sp,sp,32

00402700 <thread_gpio_input>:
  402700:	3c1c0042 	lui	gp,0x42
  402704:	279c5520 	addiu	gp,gp,21792
  402708:	27bdffe0 	addiu	sp,sp,-32
  40270c:	8f99805c 	lw	t9,-32676(gp)
  402710:	afbf001c 	sw	ra,28(sp)
  402714:	afbc0010 	sw	gp,16(sp)
  402718:	0320f809 	jalr	t9
  40271c:	00000000 	nop
  402720:	8fbf001c 	lw	ra,28(sp)
  402724:	00001021 	move	v0,zero
  402728:	03e00008 	jr	ra
  40272c:	27bd0020 	addiu	sp,sp,32

00402730 <application_start>:
  402730:	3c1c0042 	lui	gp,0x42
  402734:	279c5520 	addiu	gp,gp,21792
  402738:	27bdff78 	addiu	sp,sp,-136
  40273c:	2402ffff 	li	v0,-1
  402740:	8f998060 	lw	t9,-32672(gp)
  402744:	afbc0018 	sw	gp,24(sp)
  402748:	afbf0084 	sw	ra,132(sp)
  40274c:	afbe0080 	sw	s8,128(sp)
  402750:	afb7007c 	sw	s7,124(sp)
  402754:	afb60078 	sw	s6,120(sp)
  402758:	afb50074 	sw	s5,116(sp)
  40275c:	afb40070 	sw	s4,112(sp)
  402760:	afb3006c 	sw	s3,108(sp)
  402764:	afb20068 	sw	s2,104(sp)
  402768:	afb10064 	sw	s1,100(sp)
  40276c:	afb00060 	sw	s0,96(sp)
  402770:	afa20044 	sw	v0,68(sp)
  402774:	afa20040 	sw	v0,64(sp)
  402778:	afa2003c 	sw	v0,60(sp)
  40277c:	afa20038 	sw	v0,56(sp)
  402780:	afa20034 	sw	v0,52(sp)
  402784:	afa20030 	sw	v0,48(sp)
  402788:	afa2002c 	sw	v0,44(sp)
  40278c:	afa20028 	sw	v0,40(sp)
  402790:	afa20024 	sw	v0,36(sp)
  402794:	0320f809 	jalr	t9
  402798:	afa20020 	sw	v0,32(sp)
  40279c:	04400155 	bltz	v0,402cf4 <application_start+0x5c4>
  4027a0:	8fbc0018 	lw	gp,24(sp)
  4027a4:	8f998064 	lw	t9,-32668(gp)
  4027a8:	0320f809 	jalr	t9
  4027ac:	00000000 	nop
  4027b0:	0440015a 	bltz	v0,402d1c <application_start+0x5ec>
  4027b4:	8fbc0018 	lw	gp,24(sp)
  4027b8:	8f998068 	lw	t9,-32664(gp)
  4027bc:	0320f809 	jalr	t9
  4027c0:	00000000 	nop
  4027c4:	0440015f 	bltz	v0,402d44 <application_start+0x614>
  4027c8:	8fbc0018 	lw	gp,24(sp)
  4027cc:	8f9981b4 	lw	t9,-32332(gp)
  4027d0:	3c040041 	lui	a0,0x41
  4027d4:	0320f809 	jalr	t9
  4027d8:	2484b55c 	addiu	a0,a0,-19108
  4027dc:	8fbc0018 	lw	gp,24(sp)
  4027e0:	8f99806c 	lw	t9,-32660(gp)
  4027e4:	0320f809 	jalr	t9
  4027e8:	24040064 	li	a0,100
  4027ec:	8fbc0018 	lw	gp,24(sp)
  4027f0:	3c060040 	lui	a2,0x40
  4027f4:	8f9981bc 	lw	t9,-32324(gp)
  4027f8:	27a40044 	addiu	a0,sp,68
  4027fc:	00002821 	move	a1,zero
  402800:	24c62700 	addiu	a2,a2,9984
  402804:	0320f809 	jalr	t9
  402808:	00003821 	move	a3,zero
  40280c:	044001ee 	bltz	v0,402fc8 <application_start+0x898>
  402810:	8fbc0018 	lw	gp,24(sp)
  402814:	8f95816c 	lw	s5,-32404(gp)
  402818:	240201ff 	li	v0,511
  40281c:	afa20050 	sw	v0,80(sp)
  402820:	24020007 	li	v0,7
  402824:	8f9981c8 	lw	t9,-32312(gp)
  402828:	afa20054 	sw	v0,84(sp)
  40282c:	8ea70000 	lw	a3,0(s5)
  402830:	24020003 	li	v0,3
  402834:	3c040041 	lui	a0,0x41
  402838:	2484b5cc 	addiu	a0,a0,-18996
  40283c:	24050001 	li	a1,1
  402840:	24060023 	li	a2,35
  402844:	0320f809 	jalr	t9
  402848:	afa20058 	sw	v0,88(sp)
  40284c:	8fbc0018 	lw	gp,24(sp)
  402850:	241100ff 	li	s1,255
  402854:	2412007f 	li	s2,127
  402858:	2413003f 	li	s3,63
  40285c:	2414001f 	li	s4,31
  402860:	2417000f 	li	s7,15
  402864:	241e0001 	li	s8,1
  402868:	00008021 	move	s0,zero
  40286c:	8f99806c 	lw	t9,-32660(gp)
  402870:	0320f809 	jalr	t9
  402874:	2404000a 	li	a0,10
  402878:	8fbc0018 	lw	gp,24(sp)
  40287c:	3c060040 	lui	a2,0x40
  402880:	8f9981bc 	lw	t9,-32324(gp)
  402884:	27a40040 	addiu	a0,sp,64
  402888:	00002821 	move	a1,zero
  40288c:	24c626d0 	addiu	a2,a2,9936
  402890:	0320f809 	jalr	t9
  402894:	00003821 	move	a3,zero
  402898:	044001bd 	bltz	v0,402f90 <application_start+0x860>
  40289c:	8fbc0018 	lw	gp,24(sp)
  4028a0:	8fa20058 	lw	v0,88(sp)
  4028a4:	8f9981c8 	lw	t9,-32312(gp)
  4028a8:	8ea70000 	lw	a3,0(s5)
  4028ac:	3c040041 	lui	a0,0x41
  4028b0:	afb10050 	sw	s1,80(sp)
  4028b4:	afbe0058 	sw	s8,88(sp)
  4028b8:	2484b628 	addiu	a0,a0,-18904
  4028bc:	24050001 	li	a1,1
  4028c0:	24060025 	li	a2,37
  4028c4:	02408821 	move	s1,s2
  4028c8:	02609021 	move	s2,s3
  4028cc:	02809821 	move	s3,s4
  4028d0:	02e0a021 	move	s4,s7
  4028d4:	8fb70054 	lw	s7,84(sp)
  4028d8:	0320f809 	jalr	t9
  4028dc:	afa20054 	sw	v0,84(sp)
  4028e0:	8fbc0018 	lw	gp,24(sp)
  4028e4:	0200f021 	move	s8,s0
  4028e8:	8f99806c 	lw	t9,-32660(gp)
  4028ec:	0320f809 	jalr	t9
  4028f0:	2404000a 	li	a0,10
  4028f4:	8fbc0018 	lw	gp,24(sp)
  4028f8:	3c060040 	lui	a2,0x40
  4028fc:	8f9981bc 	lw	t9,-32324(gp)
  402900:	27a4003c 	addiu	a0,sp,60
  402904:	00002821 	move	a1,zero
  402908:	24c626a0 	addiu	a2,a2,9888
  40290c:	0320f809 	jalr	t9
  402910:	00003821 	move	a3,zero
  402914:	04400190 	bltz	v0,402f58 <application_start+0x828>
  402918:	8fbc0018 	lw	gp,24(sp)
  40291c:	8fa20058 	lw	v0,88(sp)
  402920:	8f9981c8 	lw	t9,-32312(gp)
  402924:	8ea70000 	lw	a3,0(s5)
  402928:	3c040041 	lui	a0,0x41
  40292c:	afb10050 	sw	s1,80(sp)
  402930:	2484b688 	addiu	a0,a0,-18808
  402934:	24050001 	li	a1,1
  402938:	24060024 	li	a2,36
  40293c:	02408821 	move	s1,s2
  402940:	afbe0058 	sw	s8,88(sp)
  402944:	02609021 	move	s2,s3
  402948:	02809821 	move	s3,s4
  40294c:	02e0a021 	move	s4,s7
  402950:	8fb70054 	lw	s7,84(sp)
  402954:	0320f809 	jalr	t9
  402958:	afa20054 	sw	v0,84(sp)
  40295c:	8fbc0018 	lw	gp,24(sp)
  402960:	8f99806c 	lw	t9,-32660(gp)
  402964:	0320f809 	jalr	t9
  402968:	2404000a 	li	a0,10
  40296c:	8fbc0018 	lw	gp,24(sp)
  402970:	3c060040 	lui	a2,0x40
  402974:	8f9981bc 	lw	t9,-32324(gp)
  402978:	27a40038 	addiu	a0,sp,56
  40297c:	00002821 	move	a1,zero
  402980:	24c62670 	addiu	a2,a2,9840
  402984:	0320f809 	jalr	t9
  402988:	00003821 	move	a3,zero
  40298c:	04400163 	bltz	v0,402f1c <application_start+0x7ec>
  402990:	8fbc0018 	lw	gp,24(sp)
  402994:	8f9981f8 	lw	t9,-32264(gp)
  402998:	3c1e0041 	lui	s8,0x41
  40299c:	27c4b6e8 	addiu	a0,s8,-18712
  4029a0:	0320f809 	jalr	t9
  4029a4:	00402821 	move	a1,v0
  4029a8:	8fbc0018 	lw	gp,24(sp)
  4029ac:	8fa20058 	lw	v0,88(sp)
  4029b0:	8ea70000 	lw	a3,0(s5)
  4029b4:	8f9981c8 	lw	t9,-32312(gp)
  4029b8:	3c040041 	lui	a0,0x41
  4029bc:	afb10050 	sw	s1,80(sp)
  4029c0:	2484b6f0 	addiu	a0,a0,-18704
  4029c4:	24050001 	li	a1,1
  4029c8:	24060025 	li	a2,37
  4029cc:	02408821 	move	s1,s2
  4029d0:	02609021 	move	s2,s3
  4029d4:	02809821 	move	s3,s4
  4029d8:	02e0a021 	move	s4,s7
  4029dc:	8fb70054 	lw	s7,84(sp)
  4029e0:	0320f809 	jalr	t9
  4029e4:	afa20054 	sw	v0,84(sp)
  4029e8:	8fbc0018 	lw	gp,24(sp)
  4029ec:	8f99806c 	lw	t9,-32660(gp)
  4029f0:	0320f809 	jalr	t9
  4029f4:	2404000a 	li	a0,10
  4029f8:	8fbc0018 	lw	gp,24(sp)
  4029fc:	3c060040 	lui	a2,0x40
  402a00:	8f9981bc 	lw	t9,-32324(gp)
  402a04:	27a40034 	addiu	a0,sp,52
  402a08:	00002821 	move	a1,zero
  402a0c:	24c62640 	addiu	a2,a2,9792
  402a10:	0320f809 	jalr	t9
  402a14:	00003821 	move	a3,zero
  402a18:	04400132 	bltz	v0,402ee4 <application_start+0x7b4>
  402a1c:	8fbc0018 	lw	gp,24(sp)
  402a20:	8f9981f8 	lw	t9,-32264(gp)
  402a24:	27c4b6e8 	addiu	a0,s8,-18712
  402a28:	0320f809 	jalr	t9
  402a2c:	00402821 	move	a1,v0
  402a30:	8fbc0018 	lw	gp,24(sp)
  402a34:	8ea70000 	lw	a3,0(s5)
  402a38:	8f9981c8 	lw	t9,-32312(gp)
  402a3c:	3c040041 	lui	a0,0x41
  402a40:	afb10050 	sw	s1,80(sp)
  402a44:	2484b750 	addiu	a0,a0,-18608
  402a48:	24050001 	li	a1,1
  402a4c:	24060026 	li	a2,38
  402a50:	02408821 	move	s1,s2
  402a54:	02609021 	move	s2,s3
  402a58:	02809821 	move	s3,s4
  402a5c:	02e0a021 	move	s4,s7
  402a60:	0320f809 	jalr	t9
  402a64:	8fb70054 	lw	s7,84(sp)
  402a68:	8fbc0018 	lw	gp,24(sp)
  402a6c:	8f99806c 	lw	t9,-32660(gp)
  402a70:	0320f809 	jalr	t9
  402a74:	2404000a 	li	a0,10
  402a78:	8fbc0018 	lw	gp,24(sp)
  402a7c:	3c060040 	lui	a2,0x40
  402a80:	8f9981bc 	lw	t9,-32324(gp)
  402a84:	27a40030 	addiu	a0,sp,48
  402a88:	00002821 	move	a1,zero
  402a8c:	24c62610 	addiu	a2,a2,9744
  402a90:	0320f809 	jalr	t9
  402a94:	00003821 	move	a3,zero
  402a98:	04400104 	bltz	v0,402eac <application_start+0x77c>
  402a9c:	8fbc0018 	lw	gp,24(sp)
  402aa0:	8f9981f8 	lw	t9,-32264(gp)
  402aa4:	27c4b6e8 	addiu	a0,s8,-18712
  402aa8:	0320f809 	jalr	t9
  402aac:	00402821 	move	a1,v0
  402ab0:	8fbc0018 	lw	gp,24(sp)
  402ab4:	8ea70000 	lw	a3,0(s5)
  402ab8:	8f9981c8 	lw	t9,-32312(gp)
  402abc:	3c040041 	lui	a0,0x41
  402ac0:	afb10050 	sw	s1,80(sp)
  402ac4:	2484b7b4 	addiu	a0,a0,-18508
  402ac8:	24050001 	li	a1,1
  402acc:	0320f809 	jalr	t9
  402ad0:	2406002a 	li	a2,42
  402ad4:	8fbc0018 	lw	gp,24(sp)
  402ad8:	02408821 	move	s1,s2
  402adc:	02609021 	move	s2,s3
  402ae0:	02809821 	move	s3,s4
  402ae4:	02e0a021 	move	s4,s7
  402ae8:	8f99806c 	lw	t9,-32660(gp)
  402aec:	0320f809 	jalr	t9
  402af0:	2404000a 	li	a0,10
  402af4:	8fbc0018 	lw	gp,24(sp)
  402af8:	3c060040 	lui	a2,0x40
  402afc:	8f9981bc 	lw	t9,-32324(gp)
  402b00:	27a4002c 	addiu	a0,sp,44
  402b04:	00002821 	move	a1,zero
  402b08:	24c625e0 	addiu	a2,a2,9696
  402b0c:	0320f809 	jalr	t9
  402b10:	00003821 	move	a3,zero
  402b14:	044000d7 	bltz	v0,402e74 <application_start+0x744>
  402b18:	8fbc0018 	lw	gp,24(sp)
  402b1c:	8f9981f8 	lw	t9,-32264(gp)
  402b20:	27c4b6e8 	addiu	a0,s8,-18712
  402b24:	0320f809 	jalr	t9
  402b28:	00402821 	move	a1,v0
  402b2c:	8fbc0018 	lw	gp,24(sp)
  402b30:	8ea70000 	lw	a3,0(s5)
  402b34:	8f9981c8 	lw	t9,-32312(gp)
  402b38:	3c040041 	lui	a0,0x41
  402b3c:	afb10050 	sw	s1,80(sp)
  402b40:	2484b81c 	addiu	a0,a0,-18404
  402b44:	24050001 	li	a1,1
  402b48:	0320f809 	jalr	t9
  402b4c:	24060029 	li	a2,41
  402b50:	8fbc0018 	lw	gp,24(sp)
  402b54:	02408821 	move	s1,s2
  402b58:	02609021 	move	s2,s3
  402b5c:	02809821 	move	s3,s4
  402b60:	8f99806c 	lw	t9,-32660(gp)
  402b64:	0320f809 	jalr	t9
  402b68:	2404000a 	li	a0,10
  402b6c:	8fbc0018 	lw	gp,24(sp)
  402b70:	3c060040 	lui	a2,0x40
  402b74:	8f9981bc 	lw	t9,-32324(gp)
  402b78:	27a40024 	addiu	a0,sp,36
  402b7c:	00002821 	move	a1,zero
  402b80:	24c625b0 	addiu	a2,a2,9648
  402b84:	0320f809 	jalr	t9
  402b88:	00003821 	move	a3,zero
  402b8c:	044000ab 	bltz	v0,402e3c <application_start+0x70c>
  402b90:	8fbc0018 	lw	gp,24(sp)
  402b94:	8f9981f8 	lw	t9,-32264(gp)
  402b98:	27c4b6e8 	addiu	a0,s8,-18712
  402b9c:	0320f809 	jalr	t9
  402ba0:	00402821 	move	a1,v0
  402ba4:	8fbc0018 	lw	gp,24(sp)
  402ba8:	8ea70000 	lw	a3,0(s5)
  402bac:	8f9981c8 	lw	t9,-32312(gp)
  402bb0:	3c040041 	lui	a0,0x41
  402bb4:	afb10050 	sw	s1,80(sp)
  402bb8:	2484b888 	addiu	a0,a0,-18296
  402bbc:	24050001 	li	a1,1
  402bc0:	0320f809 	jalr	t9
  402bc4:	2406002c 	li	a2,44
  402bc8:	8fbc0018 	lw	gp,24(sp)
  402bcc:	02408821 	move	s1,s2
  402bd0:	02609021 	move	s2,s3
  402bd4:	8f99806c 	lw	t9,-32660(gp)
  402bd8:	0320f809 	jalr	t9
  402bdc:	2404000a 	li	a0,10
  402be0:	8fbc0018 	lw	gp,24(sp)
  402be4:	3c060040 	lui	a2,0x40
  402be8:	8f9981bc 	lw	t9,-32324(gp)
  402bec:	27a40028 	addiu	a0,sp,40
  402bf0:	00002821 	move	a1,zero
  402bf4:	24c62580 	addiu	a2,a2,9600
  402bf8:	0320f809 	jalr	t9
  402bfc:	00003821 	move	a3,zero
  402c00:	04400080 	bltz	v0,402e04 <application_start+0x6d4>
  402c04:	8fbc0018 	lw	gp,24(sp)
  402c08:	8f9981f8 	lw	t9,-32264(gp)
  402c0c:	27c4b6e8 	addiu	a0,s8,-18712
  402c10:	0320f809 	jalr	t9
  402c14:	00402821 	move	a1,v0
  402c18:	8fbc0018 	lw	gp,24(sp)
  402c1c:	8ea70000 	lw	a3,0(s5)
  402c20:	8f9981c8 	lw	t9,-32312(gp)
  402c24:	3c040041 	lui	a0,0x41
  402c28:	afb10050 	sw	s1,80(sp)
  402c2c:	2484b8f4 	addiu	a0,a0,-18188
  402c30:	24050001 	li	a1,1
  402c34:	0320f809 	jalr	t9
  402c38:	24060029 	li	a2,41
  402c3c:	8fbc0018 	lw	gp,24(sp)
  402c40:	02408821 	move	s1,s2
  402c44:	8f99806c 	lw	t9,-32660(gp)
  402c48:	0320f809 	jalr	t9
  402c4c:	2404000a 	li	a0,10
  402c50:	8fbc0018 	lw	gp,24(sp)
  402c54:	3c060040 	lui	a2,0x40
  402c58:	8f9981bc 	lw	t9,-32324(gp)
  402c5c:	27a40020 	addiu	a0,sp,32
  402c60:	00002821 	move	a1,zero
  402c64:	24c62550 	addiu	a2,a2,9552
  402c68:	0320f809 	jalr	t9
  402c6c:	00003821 	move	a3,zero
  402c70:	04400052 	bltz	v0,402dbc <application_start+0x68c>
  402c74:	8fbc0018 	lw	gp,24(sp)
  402c78:	8f9981f8 	lw	t9,-32264(gp)
  402c7c:	27c4b6e8 	addiu	a0,s8,-18712
  402c80:	0320f809 	jalr	t9
  402c84:	00402821 	move	a1,v0
  402c88:	8fbc0018 	lw	gp,24(sp)
  402c8c:	8ea70000 	lw	a3,0(s5)
  402c90:	8f9981c8 	lw	t9,-32312(gp)
  402c94:	3c040041 	lui	a0,0x41
  402c98:	2484b964 	addiu	a0,a0,-18076
  402c9c:	24050001 	li	a1,1
  402ca0:	0320f809 	jalr	t9
  402ca4:	24060030 	li	a2,48
  402ca8:	1220002c 	beqz	s1,402d5c <application_start+0x62c>
  402cac:	8fbc0018 	lw	gp,24(sp)
  402cb0:	3c100041 	lui	s0,0x41
  402cb4:	8f9681f0 	lw	s6,-32272(gp)
  402cb8:	2610b9e0 	addiu	s0,s0,-17952
  402cbc:	3c080041 	lui	t0,0x41
  402cc0:	3c130041 	lui	s3,0x41
  402cc4:	2673b998 	addiu	s3,s3,-18024
  402cc8:	2512b5bc 	addiu	s2,t0,-19012
  402ccc:	8ec40000 	lw	a0,0(s6)
  402cd0:	8f998194 	lw	t9,-32364(gp)
  402cd4:	afb00010 	sw	s0,16(sp)
  402cd8:	afb10014 	sw	s1,20(sp)
  402cdc:	02602821 	move	a1,s3
  402ce0:	02403021 	move	a2,s2
  402ce4:	0320f809 	jalr	t9
  402ce8:	24070111 	li	a3,273
  402cec:	08100b33 	j	402ccc <application_start+0x59c>
  402cf0:	8fbc0018 	lw	gp,24(sp)
  402cf4:	8f9981b4 	lw	t9,-32332(gp)
  402cf8:	3c040041 	lui	a0,0x41
  402cfc:	0320f809 	jalr	t9
  402d00:	2484b510 	addiu	a0,a0,-19184
  402d04:	8fbc0018 	lw	gp,24(sp)
  402d08:	8f998064 	lw	t9,-32668(gp)
  402d0c:	0320f809 	jalr	t9
  402d10:	00000000 	nop
  402d14:	0441fea8 	bgez	v0,4027b8 <application_start+0x88>
  402d18:	8fbc0018 	lw	gp,24(sp)
  402d1c:	8f9981b4 	lw	t9,-32332(gp)
  402d20:	3c040041 	lui	a0,0x41
  402d24:	0320f809 	jalr	t9
  402d28:	2484b52c 	addiu	a0,a0,-19156
  402d2c:	8fbc0018 	lw	gp,24(sp)
  402d30:	8f998068 	lw	t9,-32664(gp)
  402d34:	0320f809 	jalr	t9
  402d38:	00000000 	nop
  402d3c:	0441fea3 	bgez	v0,4027cc <application_start+0x9c>
  402d40:	8fbc0018 	lw	gp,24(sp)
  402d44:	8f9981b4 	lw	t9,-32332(gp)
  402d48:	3c040041 	lui	a0,0x41
  402d4c:	0320f809 	jalr	t9
  402d50:	2484b544 	addiu	a0,a0,-19132
  402d54:	081009f3 	j	4027cc <application_start+0x9c>
  402d58:	8fbc0018 	lw	gp,24(sp)
  402d5c:	8fa40040 	lw	a0,64(sp)
  402d60:	10800006 	beqz	a0,402d7c <application_start+0x64c>
  402d64:	8f9981b4 	lw	t9,-32332(gp)
  402d68:	8f998158 	lw	t9,-32424(gp)
  402d6c:	0320f809 	jalr	t9
  402d70:	27a50048 	addiu	a1,sp,72
  402d74:	8fbc0018 	lw	gp,24(sp)
  402d78:	8f9981b4 	lw	t9,-32332(gp)
  402d7c:	3c040041 	lui	a0,0x41
  402d80:	0320f809 	jalr	t9
  402d84:	2484b9c4 	addiu	a0,a0,-17980
  402d88:	8fbf0084 	lw	ra,132(sp)
  402d8c:	8fbe0080 	lw	s8,128(sp)
  402d90:	8fb7007c 	lw	s7,124(sp)
  402d94:	8fb60078 	lw	s6,120(sp)
  402d98:	8fb50074 	lw	s5,116(sp)
  402d9c:	8fb40070 	lw	s4,112(sp)
  402da0:	8fb3006c 	lw	s3,108(sp)
  402da4:	8fb20068 	lw	s2,104(sp)
  402da8:	8fb10064 	lw	s1,100(sp)
  402dac:	8fb00060 	lw	s0,96(sp)
  402db0:	00001021 	move	v0,zero
  402db4:	03e00008 	jr	ra
  402db8:	27bd0088 	addiu	sp,sp,136
  402dbc:	8f9681f0 	lw	s6,-32272(gp)
  402dc0:	3c100041 	lui	s0,0x41
  402dc4:	3c080041 	lui	t0,0x41
  402dc8:	8ec40000 	lw	a0,0(s6)
  402dcc:	8f998194 	lw	t9,-32364(gp)
  402dd0:	2610b9e0 	addiu	s0,s0,-17952
  402dd4:	3c050041 	lui	a1,0x41
  402dd8:	2506b5bc 	addiu	a2,t0,-19012
  402ddc:	afa8005c 	sw	t0,92(sp)
  402de0:	afb00010 	sw	s0,16(sp)
  402de4:	24a5b920 	addiu	a1,a1,-18144
  402de8:	0320f809 	jalr	t9
  402dec:	24070101 	li	a3,257
  402df0:	3c130041 	lui	s3,0x41
  402df4:	8fbc0018 	lw	gp,24(sp)
  402df8:	8fb10050 	lw	s1,80(sp)
  402dfc:	08100b31 	j	402cc4 <application_start+0x594>
  402e00:	8fa8005c 	lw	t0,92(sp)
  402e04:	8f9681f0 	lw	s6,-32272(gp)
  402e08:	3c100041 	lui	s0,0x41
  402e0c:	8f998194 	lw	t9,-32364(gp)
  402e10:	8ec40000 	lw	a0,0(s6)
  402e14:	3c080041 	lui	t0,0x41
  402e18:	2610b9e0 	addiu	s0,s0,-17952
  402e1c:	3c050041 	lui	a1,0x41
  402e20:	afb00010 	sw	s0,16(sp)
  402e24:	24a5b8b8 	addiu	a1,a1,-18248
  402e28:	2506b5bc 	addiu	a2,t0,-19012
  402e2c:	0320f809 	jalr	t9
  402e30:	240700f2 	li	a3,242
  402e34:	08100b11 	j	402c44 <application_start+0x514>
  402e38:	8fbc0018 	lw	gp,24(sp)
  402e3c:	8f9681f0 	lw	s6,-32272(gp)
  402e40:	3c100041 	lui	s0,0x41
  402e44:	8f998194 	lw	t9,-32364(gp)
  402e48:	8ec40000 	lw	a0,0(s6)
  402e4c:	3c080041 	lui	t0,0x41
  402e50:	2610b9e0 	addiu	s0,s0,-17952
  402e54:	3c050041 	lui	a1,0x41
  402e58:	afb00010 	sw	s0,16(sp)
  402e5c:	24a5b848 	addiu	a1,a1,-18360
  402e60:	2506b5bc 	addiu	a2,t0,-19012
  402e64:	0320f809 	jalr	t9
  402e68:	240700e2 	li	a3,226
  402e6c:	08100af5 	j	402bd4 <application_start+0x4a4>
  402e70:	8fbc0018 	lw	gp,24(sp)
  402e74:	8f9681f0 	lw	s6,-32272(gp)
  402e78:	3c100041 	lui	s0,0x41
  402e7c:	8f998194 	lw	t9,-32364(gp)
  402e80:	8ec40000 	lw	a0,0(s6)
  402e84:	3c080041 	lui	t0,0x41
  402e88:	2610b9e0 	addiu	s0,s0,-17952
  402e8c:	3c050041 	lui	a1,0x41
  402e90:	afb00010 	sw	s0,16(sp)
  402e94:	24a5b7e0 	addiu	a1,a1,-18464
  402e98:	2506b5bc 	addiu	a2,t0,-19012
  402e9c:	0320f809 	jalr	t9
  402ea0:	240700d2 	li	a3,210
  402ea4:	08100ad8 	j	402b60 <application_start+0x430>
  402ea8:	8fbc0018 	lw	gp,24(sp)
  402eac:	8f9681f0 	lw	s6,-32272(gp)
  402eb0:	3c100041 	lui	s0,0x41
  402eb4:	8f998194 	lw	t9,-32364(gp)
  402eb8:	8ec40000 	lw	a0,0(s6)
  402ebc:	3c080041 	lui	t0,0x41
  402ec0:	2610b9e0 	addiu	s0,s0,-17952
  402ec4:	3c050041 	lui	a1,0x41
  402ec8:	afb00010 	sw	s0,16(sp)
  402ecc:	24a5b778 	addiu	a1,a1,-18568
  402ed0:	2506b5bc 	addiu	a2,t0,-19012
  402ed4:	0320f809 	jalr	t9
  402ed8:	240700c3 	li	a3,195
  402edc:	08100aba 	j	402ae8 <application_start+0x3b8>
  402ee0:	8fbc0018 	lw	gp,24(sp)
  402ee4:	8f9681f0 	lw	s6,-32272(gp)
  402ee8:	3c100041 	lui	s0,0x41
  402eec:	8f998194 	lw	t9,-32364(gp)
  402ef0:	8ec40000 	lw	a0,0(s6)
  402ef4:	3c080041 	lui	t0,0x41
  402ef8:	2610b9e0 	addiu	s0,s0,-17952
  402efc:	3c050041 	lui	a1,0x41
  402f00:	afb00010 	sw	s0,16(sp)
  402f04:	24a5b718 	addiu	a1,a1,-18664
  402f08:	2506b5bc 	addiu	a2,t0,-19012
  402f0c:	0320f809 	jalr	t9
  402f10:	240700b4 	li	a3,180
  402f14:	08100a9b 	j	402a6c <application_start+0x33c>
  402f18:	8fbc0018 	lw	gp,24(sp)
  402f1c:	8f9681f0 	lw	s6,-32272(gp)
  402f20:	3c100041 	lui	s0,0x41
  402f24:	8f998194 	lw	t9,-32364(gp)
  402f28:	8ec40000 	lw	a0,0(s6)
  402f2c:	3c080041 	lui	t0,0x41
  402f30:	2610b9e0 	addiu	s0,s0,-17952
  402f34:	3c050041 	lui	a1,0x41
  402f38:	afb00010 	sw	s0,16(sp)
  402f3c:	24a5b6b0 	addiu	a1,a1,-18768
  402f40:	2506b5bc 	addiu	a2,t0,-19012
  402f44:	0320f809 	jalr	t9
  402f48:	240700a5 	li	a3,165
  402f4c:	3c1e0041 	lui	s8,0x41
  402f50:	08100a7b 	j	4029ec <application_start+0x2bc>
  402f54:	8fbc0018 	lw	gp,24(sp)
  402f58:	8f9681f0 	lw	s6,-32272(gp)
  402f5c:	3c100041 	lui	s0,0x41
  402f60:	8f998194 	lw	t9,-32364(gp)
  402f64:	8ec40000 	lw	a0,0(s6)
  402f68:	3c080041 	lui	t0,0x41
  402f6c:	2610b9e0 	addiu	s0,s0,-17952
  402f70:	3c050041 	lui	a1,0x41
  402f74:	afb00010 	sw	s0,16(sp)
  402f78:	24a5b650 	addiu	a1,a1,-18864
  402f7c:	2506b5bc 	addiu	a2,t0,-19012
  402f80:	0320f809 	jalr	t9
  402f84:	24070097 	li	a3,151
  402f88:	08100a58 	j	402960 <application_start+0x230>
  402f8c:	8fbc0018 	lw	gp,24(sp)
  402f90:	8f9681f0 	lw	s6,-32272(gp)
  402f94:	3c100041 	lui	s0,0x41
  402f98:	8f998194 	lw	t9,-32364(gp)
  402f9c:	8ec40000 	lw	a0,0(s6)
  402fa0:	3c080041 	lui	t0,0x41
  402fa4:	2610b9e0 	addiu	s0,s0,-17952
  402fa8:	3c050041 	lui	a1,0x41
  402fac:	afb00010 	sw	s0,16(sp)
  402fb0:	24a5b5f0 	addiu	a1,a1,-18960
  402fb4:	2506b5bc 	addiu	a2,t0,-19012
  402fb8:	0320f809 	jalr	t9
  402fbc:	24070088 	li	a3,136
  402fc0:	08100a3a 	j	4028e8 <application_start+0x1b8>
  402fc4:	8fbc0018 	lw	gp,24(sp)
  402fc8:	8f9681f0 	lw	s6,-32272(gp)
  402fcc:	3c100041 	lui	s0,0x41
  402fd0:	8f998194 	lw	t9,-32364(gp)
  402fd4:	8ec40000 	lw	a0,0(s6)
  402fd8:	2610b9e0 	addiu	s0,s0,-17952
  402fdc:	3c080041 	lui	t0,0x41
  402fe0:	3c050041 	lui	a1,0x41
  402fe4:	afb00010 	sw	s0,16(sp)
  402fe8:	24a5b57c 	addiu	a1,a1,-19076
  402fec:	2506b5bc 	addiu	a2,t0,-19012
  402ff0:	0320f809 	jalr	t9
  402ff4:	2407007b 	li	a3,123
  402ff8:	240203ff 	li	v0,1023
  402ffc:	8fbc0018 	lw	gp,24(sp)
  403000:	afa20050 	sw	v0,80(sp)
  403004:	2402000f 	li	v0,15
  403008:	afa20054 	sw	v0,84(sp)
  40300c:	24020007 	li	v0,7
  403010:	241101ff 	li	s1,511
  403014:	241200ff 	li	s2,255
  403018:	2413007f 	li	s3,127
  40301c:	2414003f 	li	s4,63
  403020:	2417001f 	li	s7,31
  403024:	afa20058 	sw	v0,88(sp)
  403028:	241e0003 	li	s8,3
  40302c:	24100001 	li	s0,1
  403030:	08100a1b 	j	40286c <application_start+0x13c>
  403034:	8f95816c 	lw	s5,-32404(gp)
	...

00403040 <get_error_number>:
  403040:	3c020042 	lui	v0,0x42
  403044:	8c42d750 	lw	v0,-10416(v0)
  403048:	03e00008 	jr	ra
  40304c:	00000000 	nop

00403050 <set_error_number>:
  403050:	3c020042 	lui	v0,0x42
  403054:	ac44d750 	sw	a0,-10416(v0)
  403058:	03e00008 	jr	ra
  40305c:	00000000 	nop

00403060 <opio_readtv_ch>:
  403060:	27bdfea0 	addiu	sp,sp,-352
  403064:	3c1c0042 	lui	gp,0x42
  403068:	00073e00 	sll	a3,a3,0x18
  40306c:	8fa80170 	lw	t0,368(sp)
  403070:	279c5520 	addiu	gp,gp,21792
  403074:	00073e03 	sra	a3,a3,0x18
  403078:	afb5014c 	sw	s5,332(sp)
  40307c:	afb00138 	sw	s0,312(sp)
  403080:	afbf015c 	sw	ra,348(sp)
  403084:	afbe0158 	sw	s8,344(sp)
  403088:	afb70154 	sw	s7,340(sp)
  40308c:	afb60150 	sw	s6,336(sp)
  403090:	afb40148 	sw	s4,328(sp)
  403094:	afb30144 	sw	s3,324(sp)
  403098:	afb20140 	sw	s2,320(sp)
  40309c:	afb1013c 	sw	s1,316(sp)
  4030a0:	afbc0018 	sw	gp,24(sp)
  4030a4:	0080a821 	move	s5,a0
  4030a8:	00a08021 	move	s0,a1
  4030ac:	8fa20174 	lw	v0,372(sp)
  4030b0:	19000047 	blez	t0,4031d0 <opio_readtv_ch+0x170>
  4030b4:	afa70130 	sw	a3,304(sp)
  4030b8:	12000047 	beqz	s0,4031d8 <opio_readtv_ch+0x178>
  4030bc:	00021880 	sll	v1,v0,0x2
  4030c0:	000221c0 	sll	a0,v0,0x7
  4030c4:	00831823 	subu	v1,a0,v1
  4030c8:	00621021 	addu	v0,v1,v0
  4030cc:	2aa90000 	slti	t1,s5,0
  4030d0:	26a3001f 	addiu	v1,s5,31
  4030d4:	02a9180a 	movz	v1,s5,t1
  4030d8:	00604821 	move	t1,v1
  4030dc:	3c038000 	lui	v1,0x8000
  4030e0:	2463001f 	addiu	v1,v1,31
  4030e4:	000210c0 	sll	v0,v0,0x3
  4030e8:	02a31824 	and	v1,s5,v1
  4030ec:	afa80120 	sw	t0,288(sp)
  4030f0:	afa20124 	sw	v0,292(sp)
  4030f4:	0460006d 	bltz	v1,4032ac <opio_readtv_ch+0x24c>
  4030f8:	00094943 	sra	t1,t1,0x5
  4030fc:	00094880 	sll	t1,t1,0x2
  403100:	240b0001 	li	t3,1
  403104:	27a20020 	addiu	v0,sp,32
  403108:	006ba004 	sllv	s4,t3,v1
  40310c:	26b30001 	addiu	s3,s5,1
  403110:	afb0012c 	sw	s0,300(sp)
  403114:	afa60128 	sw	a2,296(sp)
  403118:	00008821 	move	s1,zero
  40311c:	27be00a0 	addiu	s8,sp,160
  403120:	27b70120 	addiu	s7,sp,288
  403124:	0049b021 	addu	s6,v0,t1
  403128:	2412ffff 	li	s2,-1
  40312c:	03c01021 	move	v0,s8
  403130:	ac400000 	sw	zero,0(v0)
  403134:	24420004 	addiu	v0,v0,4
  403138:	16e2fffd 	bne	s7,v0,403130 <opio_readtv_ch+0xd0>
  40313c:	27a30020 	addiu	v1,sp,32
  403140:	ac600000 	sw	zero,0(v1)
  403144:	24630004 	addiu	v1,v1,4
  403148:	17c3fffd 	bne	s8,v1,403140 <opio_readtv_ch+0xe0>
  40314c:	8f9981d8 	lw	t9,-32296(gp)
  403150:	8ec30080 	lw	v1,128(s6)
  403154:	8ec20000 	lw	v0,0(s6)
  403158:	02831825 	or	v1,s4,v1
  40315c:	02821025 	or	v0,s4,v0
  403160:	afb70010 	sw	s7,16(sp)
  403164:	02602021 	move	a0,s3
  403168:	03c02821 	move	a1,s8
  40316c:	00003021 	move	a2,zero
  403170:	27a70020 	addiu	a3,sp,32
  403174:	aec30080 	sw	v1,128(s6)
  403178:	0320f809 	jalr	t9
  40317c:	aec20000 	sw	v0,0(s6)
  403180:	10520038 	beq	v0,s2,403264 <opio_readtv_ch+0x204>
  403184:	8fbc0018 	lw	gp,24(sp)
  403188:	14400015 	bnez	v0,4031e0 <opio_readtv_ch+0x180>
  40318c:	8f9981b4 	lw	t9,-32332(gp)
  403190:	3c040041 	lui	a0,0x41
  403194:	0320f809 	jalr	t9
  403198:	2484ba00 	addiu	a0,a0,-17920
  40319c:	8fbf015c 	lw	ra,348(sp)
  4031a0:	02201021 	move	v0,s1
  4031a4:	8fbe0158 	lw	s8,344(sp)
  4031a8:	8fb70154 	lw	s7,340(sp)
  4031ac:	8fb60150 	lw	s6,336(sp)
  4031b0:	8fb5014c 	lw	s5,332(sp)
  4031b4:	8fb40148 	lw	s4,328(sp)
  4031b8:	8fb30144 	lw	s3,324(sp)
  4031bc:	8fb20140 	lw	s2,320(sp)
  4031c0:	8fb1013c 	lw	s1,316(sp)
  4031c4:	8fb00138 	lw	s0,312(sp)
  4031c8:	03e00008 	jr	ra
  4031cc:	27bd0160 	addiu	sp,sp,352
  4031d0:	1c40ffb9 	bgtz	v0,4030b8 <opio_readtv_ch+0x58>
  4031d4:	00000000 	nop
  4031d8:	08100c67 	j	40319c <opio_readtv_ch+0x13c>
  4031dc:	2411ffff 	li	s1,-1
  4031e0:	8ec20000 	lw	v0,0(s6)
  4031e4:	02821024 	and	v0,s4,v0
  4031e8:	1440003f 	bnez	v0,4032e8 <opio_readtv_ch+0x288>
  4031ec:	8f8281f0 	lw	v0,-32272(gp)
  4031f0:	8ec20080 	lw	v0,128(s6)
  4031f4:	02821024 	and	v0,s4,v0
  4031f8:	1040ffcd 	beqz	v0,403130 <opio_readtv_ch+0xd0>
  4031fc:	03c01021 	move	v0,s8
  403200:	8f998200 	lw	t9,-32256(gp)
  403204:	8fa5012c 	lw	a1,300(sp)
  403208:	8fa60128 	lw	a2,296(sp)
  40320c:	0320f809 	jalr	t9
  403210:	02a02021 	move	a0,s5
  403214:	1840002a 	blez	v0,4032c0 <opio_readtv_ch+0x260>
  403218:	8fbc0018 	lw	gp,24(sp)
  40321c:	00401821 	move	v1,v0
  403220:	8fa40128 	lw	a0,296(sp)
  403224:	02228821 	addu	s1,s1,v0
  403228:	00822023 	subu	a0,a0,v0
  40322c:	8fa2012c 	lw	v0,300(sp)
  403230:	afa40128 	sw	a0,296(sp)
  403234:	00431021 	addu	v0,v0,v1
  403238:	1880ffd8 	blez	a0,40319c <opio_readtv_ch+0x13c>
  40323c:	afa2012c 	sw	v0,300(sp)
  403240:	1220ffbb 	beqz	s1,403130 <opio_readtv_ch+0xd0>
  403244:	03c01021 	move	v0,s8
  403248:	02111021 	addu	v0,s0,s1
  40324c:	8042ffff 	lb	v0,-1(v0)
  403250:	8fa30130 	lw	v1,304(sp)
  403254:	1443ffb6 	bne	v0,v1,403130 <opio_readtv_ch+0xd0>
  403258:	03c01021 	move	v0,s8
  40325c:	08100c68 	j	4031a0 <opio_readtv_ch+0x140>
  403260:	8fbf015c 	lw	ra,348(sp)
  403264:	8f9981b4 	lw	t9,-32332(gp)
  403268:	3c040041 	lui	a0,0x41
  40326c:	0320f809 	jalr	t9
  403270:	2484ba1c 	addiu	a0,a0,-17892
  403274:	8fbf015c 	lw	ra,348(sp)
  403278:	2411ffff 	li	s1,-1
  40327c:	02201021 	move	v0,s1
  403280:	8fbe0158 	lw	s8,344(sp)
  403284:	8fb70154 	lw	s7,340(sp)
  403288:	8fb60150 	lw	s6,336(sp)
  40328c:	8fb5014c 	lw	s5,332(sp)
  403290:	8fb40148 	lw	s4,328(sp)
  403294:	8fb30144 	lw	s3,324(sp)
  403298:	8fb20140 	lw	s2,320(sp)
  40329c:	8fb1013c 	lw	s1,316(sp)
  4032a0:	8fb00138 	lw	s0,312(sp)
  4032a4:	03e00008 	jr	ra
  4032a8:	27bd0160 	addiu	sp,sp,352
  4032ac:	2463ffff 	addiu	v1,v1,-1
  4032b0:	2402ffe0 	li	v0,-32
  4032b4:	00621825 	or	v1,v1,v0
  4032b8:	08100c3f 	j	4030fc <opio_readtv_ch+0x9c>
  4032bc:	24630001 	addiu	v1,v1,1
  4032c0:	8f99817c 	lw	t9,-32388(gp)
  4032c4:	0320f809 	jalr	t9
  4032c8:	00000000 	nop
  4032cc:	8c420000 	lw	v0,0(v0)
  4032d0:	24030004 	li	v1,4
  4032d4:	14430011 	bne	v0,v1,40331c <opio_readtv_ch+0x2bc>
  4032d8:	8fbc0018 	lw	gp,24(sp)
  4032dc:	00001821 	move	v1,zero
  4032e0:	08100c88 	j	403220 <opio_readtv_ch+0x1c0>
  4032e4:	00001021 	move	v0,zero
  4032e8:	8f998194 	lw	t9,-32364(gp)
  4032ec:	8c440000 	lw	a0,0(v0)
  4032f0:	3c020041 	lui	v0,0x41
  4032f4:	2442bd00 	addiu	v0,v0,-17152
  4032f8:	3c050041 	lui	a1,0x41
  4032fc:	3c060041 	lui	a2,0x41
  403300:	afa20010 	sw	v0,16(sp)
  403304:	24a5ba30 	addiu	a1,a1,-17872
  403308:	24c6ba58 	addiu	a2,a2,-17832
  40330c:	0320f809 	jalr	t9
  403310:	2407003c 	li	a3,60
  403314:	08100c67 	j	40319c <opio_readtv_ch+0x13c>
  403318:	2411ffff 	li	s1,-1
  40331c:	8f83816c 	lw	v1,-32404(gp)
  403320:	8f998194 	lw	t9,-32364(gp)
  403324:	8c640000 	lw	a0,0(v1)
  403328:	3c030041 	lui	v1,0x41
  40332c:	2463bd00 	addiu	v1,v1,-17152
  403330:	3c050041 	lui	a1,0x41
  403334:	3c060041 	lui	a2,0x41
  403338:	afa30010 	sw	v1,16(sp)
  40333c:	afa20014 	sw	v0,20(sp)
  403340:	24a5ba64 	addiu	a1,a1,-17820
  403344:	24c6ba58 	addiu	a2,a2,-17832
  403348:	0320f809 	jalr	t9
  40334c:	24070048 	li	a3,72
  403350:	08100c67 	j	40319c <opio_readtv_ch+0x13c>
  403354:	2411ffff 	li	s1,-1

00403358 <opio_readtv>:
  403358:	3c1c0042 	lui	gp,0x42
  40335c:	27bdfea8 	addiu	sp,sp,-344
  403360:	279c5520 	addiu	gp,gp,21792
  403364:	afb60148 	sw	s6,328(sp)
  403368:	afbf0154 	sw	ra,340(sp)
  40336c:	afbe0150 	sw	s8,336(sp)
  403370:	afb7014c 	sw	s7,332(sp)
  403374:	afb50144 	sw	s5,324(sp)
  403378:	afb40140 	sw	s4,320(sp)
  40337c:	afb3013c 	sw	s3,316(sp)
  403380:	afb20138 	sw	s2,312(sp)
  403384:	afb10134 	sw	s1,308(sp)
  403388:	afb00130 	sw	s0,304(sp)
  40338c:	afbc0018 	sw	gp,24(sp)
  403390:	0080b021 	move	s6,a0
  403394:	18e00048 	blez	a3,4034b8 <opio_readtv+0x160>
  403398:	8fa20168 	lw	v0,360(sp)
  40339c:	10a00048 	beqz	a1,4034c0 <opio_readtv+0x168>
  4033a0:	00021880 	sll	v1,v0,0x2
  4033a4:	000221c0 	sll	a0,v0,0x7
  4033a8:	00831823 	subu	v1,a0,v1
  4033ac:	00621021 	addu	v0,v1,v0
  4033b0:	2ade0000 	slti	s8,s6,0
  4033b4:	26c3001f 	addiu	v1,s6,31
  4033b8:	02de180a 	movz	v1,s6,s8
  4033bc:	0060f021 	move	s8,v1
  4033c0:	3c038000 	lui	v1,0x8000
  4033c4:	2463001f 	addiu	v1,v1,31
  4033c8:	000210c0 	sll	v0,v0,0x3
  4033cc:	02c31824 	and	v1,s6,v1
  4033d0:	afa70120 	sw	a3,288(sp)
  4033d4:	afa20124 	sw	v0,292(sp)
  4033d8:	04600067 	bltz	v1,403578 <opio_readtv+0x220>
  4033dc:	001ef143 	sra	s8,s8,0x5
  4033e0:	001ef080 	sll	s8,s8,0x2
  4033e4:	24090001 	li	t1,1
  4033e8:	27a20020 	addiu	v0,sp,32
  4033ec:	0069a804 	sllv	s5,t1,v1
  4033f0:	26d30001 	addiu	s3,s6,1
  4033f4:	afa50128 	sw	a1,296(sp)
  4033f8:	00c0a021 	move	s4,a2
  4033fc:	00008821 	move	s1,zero
  403400:	27b000a0 	addiu	s0,sp,160
  403404:	27b70120 	addiu	s7,sp,288
  403408:	005ef021 	addu	s8,v0,s8
  40340c:	2412ffff 	li	s2,-1
  403410:	02001821 	move	v1,s0
  403414:	ac600000 	sw	zero,0(v1)
  403418:	24630004 	addiu	v1,v1,4
  40341c:	16e3fffd 	bne	s7,v1,403414 <opio_readtv+0xbc>
  403420:	00000000 	nop
  403424:	27a30020 	addiu	v1,sp,32
  403428:	ac600000 	sw	zero,0(v1)
  40342c:	24630004 	addiu	v1,v1,4
  403430:	1603fffd 	bne	s0,v1,403428 <opio_readtv+0xd0>
  403434:	8f9981d8 	lw	t9,-32296(gp)
  403438:	8fc30080 	lw	v1,128(s8)
  40343c:	8fc20000 	lw	v0,0(s8)
  403440:	02a31825 	or	v1,s5,v1
  403444:	02a21025 	or	v0,s5,v0
  403448:	afb70010 	sw	s7,16(sp)
  40344c:	02602021 	move	a0,s3
  403450:	02002821 	move	a1,s0
  403454:	00003021 	move	a2,zero
  403458:	27a70020 	addiu	a3,sp,32
  40345c:	afc30080 	sw	v1,128(s8)
  403460:	0320f809 	jalr	t9
  403464:	afc20000 	sw	v0,0(s8)
  403468:	10520031 	beq	v0,s2,403530 <opio_readtv+0x1d8>
  40346c:	8fbc0018 	lw	gp,24(sp)
  403470:	14400015 	bnez	v0,4034c8 <opio_readtv+0x170>
  403474:	8f9981b4 	lw	t9,-32332(gp)
  403478:	3c040041 	lui	a0,0x41
  40347c:	0320f809 	jalr	t9
  403480:	2484ba8c 	addiu	a0,a0,-17780
  403484:	8fbf0154 	lw	ra,340(sp)
  403488:	02201021 	move	v0,s1
  40348c:	8fbe0150 	lw	s8,336(sp)
  403490:	8fb7014c 	lw	s7,332(sp)
  403494:	8fb60148 	lw	s6,328(sp)
  403498:	8fb50144 	lw	s5,324(sp)
  40349c:	8fb40140 	lw	s4,320(sp)
  4034a0:	8fb3013c 	lw	s3,316(sp)
  4034a4:	8fb20138 	lw	s2,312(sp)
  4034a8:	8fb10134 	lw	s1,308(sp)
  4034ac:	8fb00130 	lw	s0,304(sp)
  4034b0:	03e00008 	jr	ra
  4034b4:	27bd0158 	addiu	sp,sp,344
  4034b8:	1c40ffb8 	bgtz	v0,40339c <opio_readtv+0x44>
  4034bc:	00000000 	nop
  4034c0:	08100d21 	j	403484 <opio_readtv+0x12c>
  4034c4:	2411ffff 	li	s1,-1
  4034c8:	0440003a 	bltz	v0,4035b4 <opio_readtv+0x25c>
  4034cc:	8f8281f0 	lw	v0,-32272(gp)
  4034d0:	8fc20000 	lw	v0,0(s8)
  4034d4:	02a21024 	and	v0,s5,v0
  4034d8:	14400043 	bnez	v0,4035e8 <opio_readtv+0x290>
  4034dc:	8f8281f0 	lw	v0,-32272(gp)
  4034e0:	8fc20080 	lw	v0,128(s8)
  4034e4:	02a21024 	and	v0,s5,v0
  4034e8:	1040ffca 	beqz	v0,403414 <opio_readtv+0xbc>
  4034ec:	02001821 	move	v1,s0
  4034f0:	8f998200 	lw	t9,-32256(gp)
  4034f4:	8fa50128 	lw	a1,296(sp)
  4034f8:	02c02021 	move	a0,s6
  4034fc:	0320f809 	jalr	t9
  403500:	02803021 	move	a2,s4
  403504:	18400021 	blez	v0,40358c <opio_readtv+0x234>
  403508:	8fbc0018 	lw	gp,24(sp)
  40350c:	00401821 	move	v1,v0
  403510:	0282a023 	subu	s4,s4,v0
  403514:	02228821 	addu	s1,s1,v0
  403518:	8fa20128 	lw	v0,296(sp)
  40351c:	00431021 	addu	v0,v0,v1
  403520:	1e80ffbb 	bgtz	s4,403410 <opio_readtv+0xb8>
  403524:	afa20128 	sw	v0,296(sp)
  403528:	08100d22 	j	403488 <opio_readtv+0x130>
  40352c:	8fbf0154 	lw	ra,340(sp)
  403530:	8f9981b4 	lw	t9,-32332(gp)
  403534:	3c040041 	lui	a0,0x41
  403538:	0320f809 	jalr	t9
  40353c:	2484ba1c 	addiu	a0,a0,-17892
  403540:	8fbf0154 	lw	ra,340(sp)
  403544:	2411ffff 	li	s1,-1
  403548:	02201021 	move	v0,s1
  40354c:	8fbe0150 	lw	s8,336(sp)
  403550:	8fb7014c 	lw	s7,332(sp)
  403554:	8fb60148 	lw	s6,328(sp)
  403558:	8fb50144 	lw	s5,324(sp)
  40355c:	8fb40140 	lw	s4,320(sp)
  403560:	8fb3013c 	lw	s3,316(sp)
  403564:	8fb20138 	lw	s2,312(sp)
  403568:	8fb10134 	lw	s1,308(sp)
  40356c:	8fb00130 	lw	s0,304(sp)
  403570:	03e00008 	jr	ra
  403574:	27bd0158 	addiu	sp,sp,344
  403578:	2463ffff 	addiu	v1,v1,-1
  40357c:	2402ffe0 	li	v0,-32
  403580:	00621825 	or	v1,v1,v0
  403584:	08100cf8 	j	4033e0 <opio_readtv+0x88>
  403588:	24630001 	addiu	v1,v1,1
  40358c:	8f99817c 	lw	t9,-32388(gp)
  403590:	0320f809 	jalr	t9
  403594:	00000000 	nop
  403598:	8c420000 	lw	v0,0(v0)
  40359c:	24030004 	li	v1,4
  4035a0:	1443001e 	bne	v0,v1,40361c <opio_readtv+0x2c4>
  4035a4:	8fbc0018 	lw	gp,24(sp)
  4035a8:	00001821 	move	v1,zero
  4035ac:	08100d44 	j	403510 <opio_readtv+0x1b8>
  4035b0:	00001021 	move	v0,zero
  4035b4:	8f998194 	lw	t9,-32364(gp)
  4035b8:	8c440000 	lw	a0,0(v0)
  4035bc:	3c020041 	lui	v0,0x41
  4035c0:	2442bd10 	addiu	v0,v0,-17136
  4035c4:	3c050041 	lui	a1,0x41
  4035c8:	3c060041 	lui	a2,0x41
  4035cc:	afa20010 	sw	v0,16(sp)
  4035d0:	24a5ba30 	addiu	a1,a1,-17872
  4035d4:	24c6ba58 	addiu	a2,a2,-17832
  4035d8:	0320f809 	jalr	t9
  4035dc:	24070090 	li	a3,144
  4035e0:	08100d21 	j	403484 <opio_readtv+0x12c>
  4035e4:	2411ffff 	li	s1,-1
  4035e8:	8f998194 	lw	t9,-32364(gp)
  4035ec:	8c440000 	lw	a0,0(v0)
  4035f0:	3c020041 	lui	v0,0x41
  4035f4:	2442bd10 	addiu	v0,v0,-17136
  4035f8:	3c050041 	lui	a1,0x41
  4035fc:	3c060041 	lui	a2,0x41
  403600:	afa20010 	sw	v0,16(sp)
  403604:	24a5ba30 	addiu	a1,a1,-17872
  403608:	24c6ba58 	addiu	a2,a2,-17832
  40360c:	0320f809 	jalr	t9
  403610:	24070096 	li	a3,150
  403614:	08100d21 	j	403484 <opio_readtv+0x12c>
  403618:	2411ffff 	li	s1,-1
  40361c:	8f83816c 	lw	v1,-32404(gp)
  403620:	8f998194 	lw	t9,-32364(gp)
  403624:	8c640000 	lw	a0,0(v1)
  403628:	3c030041 	lui	v1,0x41
  40362c:	2463bd10 	addiu	v1,v1,-17136
  403630:	3c050041 	lui	a1,0x41
  403634:	3c060041 	lui	a2,0x41
  403638:	afa30010 	sw	v1,16(sp)
  40363c:	afa20014 	sw	v0,20(sp)
  403640:	24a5ba64 	addiu	a1,a1,-17820
  403644:	24c6ba58 	addiu	a2,a2,-17832
  403648:	0320f809 	jalr	t9
  40364c:	240700a2 	li	a3,162
  403650:	08100d21 	j	403484 <opio_readtv+0x12c>
  403654:	2411ffff 	li	s1,-1

00403658 <opio_writetv>:
  403658:	3c1c0042 	lui	gp,0x42
  40365c:	27bdfea8 	addiu	sp,sp,-344
  403660:	279c5520 	addiu	gp,gp,21792
  403664:	afb60148 	sw	s6,328(sp)
  403668:	afbf0154 	sw	ra,340(sp)
  40366c:	afbe0150 	sw	s8,336(sp)
  403670:	afb7014c 	sw	s7,332(sp)
  403674:	afb50144 	sw	s5,324(sp)
  403678:	afb40140 	sw	s4,320(sp)
  40367c:	afb3013c 	sw	s3,316(sp)
  403680:	afb20138 	sw	s2,312(sp)
  403684:	afb10134 	sw	s1,308(sp)
  403688:	afb00130 	sw	s0,304(sp)
  40368c:	afbc0018 	sw	gp,24(sp)
  403690:	0080b021 	move	s6,a0
  403694:	18e00048 	blez	a3,4037b8 <opio_writetv+0x160>
  403698:	8fa20168 	lw	v0,360(sp)
  40369c:	10a00048 	beqz	a1,4037c0 <opio_writetv+0x168>
  4036a0:	00021880 	sll	v1,v0,0x2
  4036a4:	000221c0 	sll	a0,v0,0x7
  4036a8:	00831823 	subu	v1,a0,v1
  4036ac:	00621021 	addu	v0,v1,v0
  4036b0:	2ade0000 	slti	s8,s6,0
  4036b4:	26c3001f 	addiu	v1,s6,31
  4036b8:	02de180a 	movz	v1,s6,s8
  4036bc:	0060f021 	move	s8,v1
  4036c0:	3c038000 	lui	v1,0x8000
  4036c4:	2463001f 	addiu	v1,v1,31
  4036c8:	000210c0 	sll	v0,v0,0x3
  4036cc:	02c31824 	and	v1,s6,v1
  4036d0:	afa70120 	sw	a3,288(sp)
  4036d4:	afa20124 	sw	v0,292(sp)
  4036d8:	04600067 	bltz	v1,403878 <opio_writetv+0x220>
  4036dc:	001ef143 	sra	s8,s8,0x5
  4036e0:	001ef080 	sll	s8,s8,0x2
  4036e4:	24090001 	li	t1,1
  4036e8:	27a20020 	addiu	v0,sp,32
  4036ec:	0069a804 	sllv	s5,t1,v1
  4036f0:	26d30001 	addiu	s3,s6,1
  4036f4:	afa50128 	sw	a1,296(sp)
  4036f8:	00c0a021 	move	s4,a2
  4036fc:	00008821 	move	s1,zero
  403700:	27b000a0 	addiu	s0,sp,160
  403704:	27b70120 	addiu	s7,sp,288
  403708:	005ef021 	addu	s8,v0,s8
  40370c:	2412ffff 	li	s2,-1
  403710:	02001821 	move	v1,s0
  403714:	ac600000 	sw	zero,0(v1)
  403718:	24630004 	addiu	v1,v1,4
  40371c:	16e3fffd 	bne	s7,v1,403714 <opio_writetv+0xbc>
  403720:	00000000 	nop
  403724:	27a30020 	addiu	v1,sp,32
  403728:	ac600000 	sw	zero,0(v1)
  40372c:	24630004 	addiu	v1,v1,4
  403730:	1603fffd 	bne	s0,v1,403728 <opio_writetv+0xd0>
  403734:	8f9981d8 	lw	t9,-32296(gp)
  403738:	8fc30080 	lw	v1,128(s8)
  40373c:	8fc20000 	lw	v0,0(s8)
  403740:	02a31825 	or	v1,s5,v1
  403744:	02a21025 	or	v0,s5,v0
  403748:	afb70010 	sw	s7,16(sp)
  40374c:	02602021 	move	a0,s3
  403750:	00002821 	move	a1,zero
  403754:	02003021 	move	a2,s0
  403758:	27a70020 	addiu	a3,sp,32
  40375c:	afc30080 	sw	v1,128(s8)
  403760:	0320f809 	jalr	t9
  403764:	afc20000 	sw	v0,0(s8)
  403768:	10520031 	beq	v0,s2,403830 <opio_writetv+0x1d8>
  40376c:	8fbc0018 	lw	gp,24(sp)
  403770:	14400015 	bnez	v0,4037c8 <opio_writetv+0x170>
  403774:	8f9981b4 	lw	t9,-32332(gp)
  403778:	3c040041 	lui	a0,0x41
  40377c:	0320f809 	jalr	t9
  403780:	2484baa4 	addiu	a0,a0,-17756
  403784:	8fbf0154 	lw	ra,340(sp)
  403788:	02201021 	move	v0,s1
  40378c:	8fbe0150 	lw	s8,336(sp)
  403790:	8fb7014c 	lw	s7,332(sp)
  403794:	8fb60148 	lw	s6,328(sp)
  403798:	8fb50144 	lw	s5,324(sp)
  40379c:	8fb40140 	lw	s4,320(sp)
  4037a0:	8fb3013c 	lw	s3,316(sp)
  4037a4:	8fb20138 	lw	s2,312(sp)
  4037a8:	8fb10134 	lw	s1,308(sp)
  4037ac:	8fb00130 	lw	s0,304(sp)
  4037b0:	03e00008 	jr	ra
  4037b4:	27bd0158 	addiu	sp,sp,344
  4037b8:	1c40ffb8 	bgtz	v0,40369c <opio_writetv+0x44>
  4037bc:	00000000 	nop
  4037c0:	08100de1 	j	403784 <opio_writetv+0x12c>
  4037c4:	2411ffff 	li	s1,-1
  4037c8:	0440003a 	bltz	v0,4038b4 <opio_writetv+0x25c>
  4037cc:	8f8281f0 	lw	v0,-32272(gp)
  4037d0:	8fc20000 	lw	v0,0(s8)
  4037d4:	02a21024 	and	v0,s5,v0
  4037d8:	14400043 	bnez	v0,4038e8 <opio_writetv+0x290>
  4037dc:	8f8281f0 	lw	v0,-32272(gp)
  4037e0:	8fc20080 	lw	v0,128(s8)
  4037e4:	02a21024 	and	v0,s5,v0
  4037e8:	1040ffca 	beqz	v0,403714 <opio_writetv+0xbc>
  4037ec:	02001821 	move	v1,s0
  4037f0:	8f998190 	lw	t9,-32368(gp)
  4037f4:	8fa50128 	lw	a1,296(sp)
  4037f8:	02c02021 	move	a0,s6
  4037fc:	0320f809 	jalr	t9
  403800:	02803021 	move	a2,s4
  403804:	04400021 	bltz	v0,40388c <opio_writetv+0x234>
  403808:	8fbc0018 	lw	gp,24(sp)
  40380c:	00401821 	move	v1,v0
  403810:	0282a023 	subu	s4,s4,v0
  403814:	02228821 	addu	s1,s1,v0
  403818:	8fa20128 	lw	v0,296(sp)
  40381c:	00431021 	addu	v0,v0,v1
  403820:	1e80ffbb 	bgtz	s4,403710 <opio_writetv+0xb8>
  403824:	afa20128 	sw	v0,296(sp)
  403828:	08100de2 	j	403788 <opio_writetv+0x130>
  40382c:	8fbf0154 	lw	ra,340(sp)
  403830:	8f9981b4 	lw	t9,-32332(gp)
  403834:	3c040041 	lui	a0,0x41
  403838:	0320f809 	jalr	t9
  40383c:	2484babc 	addiu	a0,a0,-17732
  403840:	8fbf0154 	lw	ra,340(sp)
  403844:	2411ffff 	li	s1,-1
  403848:	02201021 	move	v0,s1
  40384c:	8fbe0150 	lw	s8,336(sp)
  403850:	8fb7014c 	lw	s7,332(sp)
  403854:	8fb60148 	lw	s6,328(sp)
  403858:	8fb50144 	lw	s5,324(sp)
  40385c:	8fb40140 	lw	s4,320(sp)
  403860:	8fb3013c 	lw	s3,316(sp)
  403864:	8fb20138 	lw	s2,312(sp)
  403868:	8fb10134 	lw	s1,308(sp)
  40386c:	8fb00130 	lw	s0,304(sp)
  403870:	03e00008 	jr	ra
  403874:	27bd0158 	addiu	sp,sp,344
  403878:	2463ffff 	addiu	v1,v1,-1
  40387c:	2402ffe0 	li	v0,-32
  403880:	00621825 	or	v1,v1,v0
  403884:	08100db8 	j	4036e0 <opio_writetv+0x88>
  403888:	24630001 	addiu	v1,v1,1
  40388c:	8f99817c 	lw	t9,-32388(gp)
  403890:	0320f809 	jalr	t9
  403894:	00000000 	nop
  403898:	8c420000 	lw	v0,0(v0)
  40389c:	24030004 	li	v1,4
  4038a0:	1443ffc7 	bne	v0,v1,4037c0 <opio_writetv+0x168>
  4038a4:	8fbc0018 	lw	gp,24(sp)
  4038a8:	00001821 	move	v1,zero
  4038ac:	08100e04 	j	403810 <opio_writetv+0x1b8>
  4038b0:	00001021 	move	v0,zero
  4038b4:	8f998194 	lw	t9,-32364(gp)
  4038b8:	8c440000 	lw	a0,0(v0)
  4038bc:	3c020041 	lui	v0,0x41
  4038c0:	2442bd1c 	addiu	v0,v0,-17124
  4038c4:	3c050041 	lui	a1,0x41
  4038c8:	3c060041 	lui	a2,0x41
  4038cc:	afa20010 	sw	v0,16(sp)
  4038d0:	24a5ba30 	addiu	a1,a1,-17872
  4038d4:	24c6ba58 	addiu	a2,a2,-17832
  4038d8:	0320f809 	jalr	t9
  4038dc:	240700e1 	li	a3,225
  4038e0:	08100de1 	j	403784 <opio_writetv+0x12c>
  4038e4:	2411ffff 	li	s1,-1
  4038e8:	8f998194 	lw	t9,-32364(gp)
  4038ec:	8c440000 	lw	a0,0(v0)
  4038f0:	3c020041 	lui	v0,0x41
  4038f4:	2442bd1c 	addiu	v0,v0,-17124
  4038f8:	3c050041 	lui	a1,0x41
  4038fc:	3c060041 	lui	a2,0x41
  403900:	afa20010 	sw	v0,16(sp)
  403904:	24a5bad4 	addiu	a1,a1,-17708
  403908:	24c6ba58 	addiu	a2,a2,-17832
  40390c:	0320f809 	jalr	t9
  403910:	240700e6 	li	a3,230
  403914:	08100de1 	j	403784 <opio_writetv+0x12c>
  403918:	2411ffff 	li	s1,-1

0040391c <strncmp_cmd>:
  40391c:	27bdffd0 	addiu	sp,sp,-48
  403920:	3c1c0042 	lui	gp,0x42
  403924:	279c5520 	addiu	gp,gp,21792
  403928:	afb20024 	sw	s2,36(sp)
  40392c:	00069600 	sll	s2,a2,0x18
  403930:	afb0001c 	sw	s0,28(sp)
  403934:	afbf002c 	sw	ra,44(sp)
  403938:	afb30028 	sw	s3,40(sp)
  40393c:	afb10020 	sw	s1,32(sp)
  403940:	afbc0010 	sw	gp,16(sp)
  403944:	00808021 	move	s0,a0
  403948:	10800055 	beqz	a0,403aa0 <strncmp_cmd+0x184>
  40394c:	00129603 	sra	s2,s2,0x18
  403950:	10a00053 	beqz	a1,403aa0 <strncmp_cmd+0x184>
  403954:	00a08821 	move	s1,a1
  403958:	80820000 	lb	v0,0(a0)
  40395c:	00801821 	move	v1,a0
  403960:	2407000d 	li	a3,13
  403964:	2408000a 	li	t0,10
  403968:	10400008 	beqz	v0,40398c <strncmp_cmd+0x70>
  40396c:	24040020 	li	a0,32
  403970:	1047002d 	beq	v0,a3,403a28 <strncmp_cmd+0x10c>
  403974:	00000000 	nop
  403978:	1048002b 	beq	v0,t0,403a28 <strncmp_cmd+0x10c>
  40397c:	00000000 	nop
  403980:	80620001 	lb	v0,1(v1)
  403984:	1440fffa 	bnez	v0,403970 <strncmp_cmd+0x54>
  403988:	24630001 	addiu	v1,v1,1
  40398c:	82220000 	lb	v0,0(s1)
  403990:	02201821 	move	v1,s1
  403994:	2407000d 	li	a3,13
  403998:	2408000a 	li	t0,10
  40399c:	10400008 	beqz	v0,4039c0 <strncmp_cmd+0xa4>
  4039a0:	24040020 	li	a0,32
  4039a4:	10470023 	beq	v0,a3,403a34 <strncmp_cmd+0x118>
  4039a8:	00000000 	nop
  4039ac:	10480021 	beq	v0,t0,403a34 <strncmp_cmd+0x118>
  4039b0:	00000000 	nop
  4039b4:	80620001 	lb	v0,1(v1)
  4039b8:	1440fffa 	bnez	v0,4039a4 <strncmp_cmd+0x88>
  4039bc:	24630001 	addiu	v1,v1,1
  4039c0:	8f9981a0 	lw	t9,-32352(gp)
  4039c4:	02002021 	move	a0,s0
  4039c8:	0320f809 	jalr	t9
  4039cc:	02402821 	move	a1,s2
  4039d0:	1040001b 	beqz	v0,403a40 <strncmp_cmd+0x124>
  4039d4:	8fbc0010 	lw	gp,16(sp)
  4039d8:	8f9981a0 	lw	t9,-32352(gp)
  4039dc:	02202021 	move	a0,s1
  4039e0:	02402821 	move	a1,s2
  4039e4:	0320f809 	jalr	t9
  4039e8:	00509823 	subu	s3,v0,s0
  4039ec:	1040001f 	beqz	v0,403a6c <strncmp_cmd+0x150>
  4039f0:	8fbc0010 	lw	gp,16(sp)
  4039f4:	00511023 	subu	v0,v0,s1
  4039f8:	16620021 	bne	s3,v0,403a80 <strncmp_cmd+0x164>
  4039fc:	8fbf002c 	lw	ra,44(sp)
  403a00:	8fb20024 	lw	s2,36(sp)
  403a04:	02002021 	move	a0,s0
  403a08:	02202821 	move	a1,s1
  403a0c:	8fb0001c 	lw	s0,28(sp)
  403a10:	8fb10020 	lw	s1,32(sp)
  403a14:	02603021 	move	a2,s3
  403a18:	8f998148 	lw	t9,-32440(gp)
  403a1c:	8fb30028 	lw	s3,40(sp)
  403a20:	03200008 	jr	t9
  403a24:	27bd0030 	addiu	sp,sp,48
  403a28:	a0640000 	sb	a0,0(v1)
  403a2c:	08100e5c 	j	403970 <strncmp_cmd+0x54>
  403a30:	24020020 	li	v0,32
  403a34:	a0640000 	sb	a0,0(v1)
  403a38:	08100e69 	j	4039a4 <strncmp_cmd+0x88>
  403a3c:	24020020 	li	v0,32
  403a40:	8f99819c 	lw	t9,-32356(gp)
  403a44:	0320f809 	jalr	t9
  403a48:	02002021 	move	a0,s0
  403a4c:	8fbc0010 	lw	gp,16(sp)
  403a50:	02202021 	move	a0,s1
  403a54:	8f9981a0 	lw	t9,-32352(gp)
  403a58:	02402821 	move	a1,s2
  403a5c:	0320f809 	jalr	t9
  403a60:	00409821 	move	s3,v0
  403a64:	1440ffe3 	bnez	v0,4039f4 <strncmp_cmd+0xd8>
  403a68:	8fbc0010 	lw	gp,16(sp)
  403a6c:	8f99819c 	lw	t9,-32356(gp)
  403a70:	0320f809 	jalr	t9
  403a74:	02202021 	move	a0,s1
  403a78:	08100e7e 	j	4039f8 <strncmp_cmd+0xdc>
  403a7c:	8fbc0010 	lw	gp,16(sp)
  403a80:	2402fffc 	li	v0,-4
  403a84:	8fbf002c 	lw	ra,44(sp)
  403a88:	8fb30028 	lw	s3,40(sp)
  403a8c:	8fb20024 	lw	s2,36(sp)
  403a90:	8fb10020 	lw	s1,32(sp)
  403a94:	8fb0001c 	lw	s0,28(sp)
  403a98:	03e00008 	jr	ra
  403a9c:	27bd0030 	addiu	sp,sp,48
  403aa0:	08100ea1 	j	403a84 <strncmp_cmd+0x168>
  403aa4:	2402fffe 	li	v0,-2

00403aa8 <tim_subtrack>:
  403aa8:	00e5402a 	slt	t0,a3,a1
  403aac:	00e01821 	move	v1,a3
  403ab0:	afa7000c 	sw	a3,12(sp)
  403ab4:	00a01021 	move	v0,a1
  403ab8:	afa50004 	sw	a1,4(sp)
  403abc:	afa60008 	sw	a2,8(sp)
  403ac0:	1500002a 	bnez	t0,403b6c <tim_subtrack+0xc4>
  403ac4:	8fa70010 	lw	a3,16(sp)
  403ac8:	10430023 	beq	v0,v1,403b58 <tim_subtrack+0xb0>
  403acc:	00e6282a 	slt	a1,a3,a2
  403ad0:	10a00023 	beqz	a1,403b60 <tim_subtrack+0xb8>
  403ad4:	00000000 	nop
  403ad8:	3c05000f 	lui	a1,0xf
  403adc:	24a54240 	addiu	a1,a1,16960
  403ae0:	00c53021 	addu	a2,a2,a1
  403ae4:	00622823 	subu	a1,v1,v0
  403ae8:	00c73023 	subu	a2,a2,a3
  403aec:	24a5ffff 	addiu	a1,a1,-1
  403af0:	3c021062 	lui	v0,0x1062
  403af4:	24424dd3 	addiu	v0,v0,19923
  403af8:	00c20018 	mult	a2,v0
  403afc:	00061fc3 	sra	v1,a2,0x1f
  403b00:	00001010 	mfhi	v0
  403b04:	000539c0 	sll	a3,a1,0x7
  403b08:	00021183 	sra	v0,v0,0x6
  403b0c:	00431023 	subu	v0,v0,v1
  403b10:	00021880 	sll	v1,v0,0x2
  403b14:	000241c0 	sll	t0,v0,0x7
  403b18:	01034023 	subu	t0,t0,v1
  403b1c:	01024021 	addu	t0,t0,v0
  403b20:	000840c0 	sll	t0,t0,0x3
  403b24:	00051880 	sll	v1,a1,0x2
  403b28:	00e31823 	subu	v1,a3,v1
  403b2c:	00c84023 	subu	t0,a2,t0
  403b30:	290801f5 	slti	t0,t0,501
  403b34:	24470001 	addiu	a3,v0,1
  403b38:	00651821 	addu	v1,v1,a1
  403b3c:	00e8100a 	movz	v0,a3,t0
  403b40:	000318c0 	sll	v1,v1,0x3
  403b44:	1080000a 	beqz	a0,403b70 <tim_subtrack+0xc8>
  403b48:	00621021 	addu	v0,v1,v0
  403b4c:	ac850000 	sw	a1,0(a0)
  403b50:	03e00008 	jr	ra
  403b54:	ac860004 	sw	a2,4(a0)
  403b58:	14a00004 	bnez	a1,403b6c <tim_subtrack+0xc4>
  403b5c:	00000000 	nop
  403b60:	00e63023 	subu	a2,a3,a2
  403b64:	08100ebc 	j	403af0 <tim_subtrack+0x48>
  403b68:	00622823 	subu	a1,v1,v0
  403b6c:	2402ffff 	li	v0,-1
  403b70:	03e00008 	jr	ra
  403b74:	00000000 	nop

00403b78 <msleep_m>:
  403b78:	1c800003 	bgtz	a0,403b88 <msleep_m+0x10>
  403b7c:	3c021062 	lui	v0,0x1062
  403b80:	03e00008 	jr	ra
  403b84:	00000000 	nop
  403b88:	24424dd3 	addiu	v0,v0,19923
  403b8c:	00820018 	mult	a0,v0
  403b90:	00041fc3 	sra	v1,a0,0x1f
  403b94:	00001010 	mfhi	v0
  403b98:	3c1c0042 	lui	gp,0x42
  403b9c:	00021183 	sra	v0,v0,0x6
  403ba0:	00431023 	subu	v0,v0,v1
  403ba4:	000229c0 	sll	a1,v0,0x7
  403ba8:	00021880 	sll	v1,v0,0x2
  403bac:	00a31823 	subu	v1,a1,v1
  403bb0:	00621821 	addu	v1,v1,v0
  403bb4:	000318c0 	sll	v1,v1,0x3
  403bb8:	00832023 	subu	a0,a0,v1
  403bbc:	000429c0 	sll	a1,a0,0x7
  403bc0:	00041880 	sll	v1,a0,0x2
  403bc4:	00a31823 	subu	v1,a1,v1
  403bc8:	27bdffd0 	addiu	sp,sp,-48
  403bcc:	279c5520 	addiu	gp,gp,21792
  403bd0:	00642021 	addu	a0,v1,a0
  403bd4:	000418c0 	sll	v1,a0,0x3
  403bd8:	8f9981d8 	lw	t9,-32296(gp)
  403bdc:	27a40020 	addiu	a0,sp,32
  403be0:	00002821 	move	a1,zero
  403be4:	afbf002c 	sw	ra,44(sp)
  403be8:	afbc0018 	sw	gp,24(sp)
  403bec:	afa40010 	sw	a0,16(sp)
  403bf0:	afa30024 	sw	v1,36(sp)
  403bf4:	00002021 	move	a0,zero
  403bf8:	00003021 	move	a2,zero
  403bfc:	00003821 	move	a3,zero
  403c00:	0320f809 	jalr	t9
  403c04:	afa20020 	sw	v0,32(sp)
  403c08:	8fbf002c 	lw	ra,44(sp)
  403c0c:	03e00008 	jr	ra
  403c10:	27bd0030 	addiu	sp,sp,48

00403c14 <crc16table>:
  403c14:	30a500ff 	andi	a1,a1,0xff
  403c18:	24a3ffff 	addiu	v1,a1,-1
  403c1c:	10a00016 	beqz	a1,403c78 <crc16table+0x64>
  403c20:	306300ff 	andi	v1,v1,0xff
  403c24:	3c090041 	lui	t1,0x41
  403c28:	3c080041 	lui	t0,0x41
  403c2c:	240200ff 	li	v0,255
  403c30:	240600ff 	li	a2,255
  403c34:	2529bc00 	addiu	t1,t1,-17408
  403c38:	2508bb00 	addiu	t0,t0,-17664
  403c3c:	240700ff 	li	a3,255
  403c40:	90850000 	lbu	a1,0(a0)
  403c44:	2463ffff 	addiu	v1,v1,-1
  403c48:	00452826 	xor	a1,v0,a1
  403c4c:	01251021 	addu	v0,t1,a1
  403c50:	90420000 	lbu	v0,0(v0)
  403c54:	01052821 	addu	a1,t0,a1
  403c58:	306300ff 	andi	v1,v1,0xff
  403c5c:	00c21026 	xor	v0,a2,v0
  403c60:	24840001 	addiu	a0,a0,1
  403c64:	1467fff6 	bne	v1,a3,403c40 <crc16table+0x2c>
  403c68:	90a60000 	lbu	a2,0(a1)
  403c6c:	00063200 	sll	a2,a2,0x8
  403c70:	03e00008 	jr	ra
  403c74:	00c21025 	or	v0,a2,v0
  403c78:	03e00008 	jr	ra
  403c7c:	3402ffff 	li	v0,0xffff

00403c80 <tm1650_display_set>:
  403c80:	27bdffd0 	addiu	sp,sp,-48
  403c84:	3c1c0042 	lui	gp,0x42
  403c88:	8fa20040 	lw	v0,64(sp)
  403c8c:	279c5520 	addiu	gp,gp,21792
  403c90:	24030001 	li	v1,1
  403c94:	afb30028 	sw	s3,40(sp)
  403c98:	afb10020 	sw	s1,32(sp)
  403c9c:	afbf002c 	sw	ra,44(sp)
  403ca0:	afb20024 	sw	s2,36(sp)
  403ca4:	afb0001c 	sw	s0,28(sp)
  403ca8:	afbc0010 	sw	gp,16(sp)
  403cac:	00809821 	move	s3,a0
  403cb0:	1043002f 	beq	v0,v1,403d70 <tm1650_display_set+0xf0>
  403cb4:	00a08821 	move	s1,a1
  403cb8:	14400044 	bnez	v0,403dcc <tm1650_display_set+0x14c>
  403cbc:	24020034 	li	v0,52
  403cc0:	10c20059 	beq	a2,v0,403e28 <tm1650_display_set+0x1a8>
  403cc4:	24020035 	li	v0,53
  403cc8:	10c20072 	beq	a2,v0,403e94 <tm1650_display_set+0x214>
  403ccc:	24020036 	li	v0,54
  403cd0:	10c20067 	beq	a2,v0,403e70 <tm1650_display_set+0x1f0>
  403cd4:	00000000 	nop
  403cd8:	24020035 	li	v0,53
  403cdc:	10c20041 	beq	a2,v0,403de4 <tm1650_display_set+0x164>
  403ce0:	24020036 	li	v0,54
  403ce4:	10c2004e 	beq	a2,v0,403e20 <tm1650_display_set+0x1a0>
  403ce8:	3c020042 	lui	v0,0x42
  403cec:	00009021 	move	s2,zero
  403cf0:	8e300000 	lw	s0,0(s1)
  403cf4:	8f9981b8 	lw	t9,-32328(gp)
  403cf8:	24020001 	li	v0,1
  403cfc:	ae220004 	sw	v0,4(s1)
  403d00:	24040001 	li	a0,1
  403d04:	a6060000 	sh	a2,0(s0)
  403d08:	a6020004 	sh	v0,4(s0)
  403d0c:	a6000002 	sh	zero,2(s0)
  403d10:	0320f809 	jalr	t9
  403d14:	0007900a 	movz	s2,zero,a3
  403d18:	8fbc0010 	lw	gp,16(sp)
  403d1c:	ae020008 	sw	v0,8(s0)
  403d20:	8f9981d0 	lw	t9,-32304(gp)
  403d24:	02602021 	move	a0,s3
  403d28:	a0520000 	sb	s2,0(v0)
  403d2c:	24050707 	li	a1,1799
  403d30:	0320f809 	jalr	t9
  403d34:	02203021 	move	a2,s1
  403d38:	044000b3 	bltz	v0,404008 <tm1650_display_set+0x388>
  403d3c:	8fbc0010 	lw	gp,16(sp)
  403d40:	8e220000 	lw	v0,0(s1)
  403d44:	8f9981ec 	lw	t9,-32276(gp)
  403d48:	0320f809 	jalr	t9
  403d4c:	8c440008 	lw	a0,8(v0)
  403d50:	24020001 	li	v0,1
  403d54:	8fbf002c 	lw	ra,44(sp)
  403d58:	8fb30028 	lw	s3,40(sp)
  403d5c:	8fb20024 	lw	s2,36(sp)
  403d60:	8fb10020 	lw	s1,32(sp)
  403d64:	8fb0001c 	lw	s0,28(sp)
  403d68:	03e00008 	jr	ra
  403d6c:	27bd0030 	addiu	sp,sp,48
  403d70:	24030034 	li	v1,52
  403d74:	10c3005a 	beq	a2,v1,403ee0 <tm1650_display_set+0x260>
  403d78:	24030035 	li	v1,53
  403d7c:	14c3001c 	bne	a2,v1,403df0 <tm1650_display_set+0x170>
  403d80:	00000000 	nop
  403d84:	10e20069 	beq	a3,v0,403f2c <tm1650_display_set+0x2ac>
  403d88:	24020002 	li	v0,2
  403d8c:	10e200a9 	beq	a3,v0,404034 <tm1650_display_set+0x3b4>
  403d90:	24020004 	li	v0,4
  403d94:	10e200bb 	beq	a3,v0,404084 <tm1650_display_set+0x404>
  403d98:	24020008 	li	v0,8
  403d9c:	10e200d2 	beq	a3,v0,4040e8 <tm1650_display_set+0x468>
  403da0:	24020010 	li	v0,16
  403da4:	10e200df 	beq	a3,v0,404124 <tm1650_display_set+0x4a4>
  403da8:	24020020 	li	v0,32
  403dac:	10e200e2 	beq	a3,v0,404138 <tm1650_display_set+0x4b8>
  403db0:	24020040 	li	v0,64
  403db4:	14e20006 	bne	a3,v0,403dd0 <tm1650_display_set+0x150>
  403db8:	24020034 	li	v0,52
  403dbc:	3c020042 	lui	v0,0x42
  403dc0:	9043d764 	lbu	v1,-10396(v0)
  403dc4:	34630040 	ori	v1,v1,0x40
  403dc8:	a043d764 	sb	v1,-10396(v0)
  403dcc:	24020034 	li	v0,52
  403dd0:	14c2ffc2 	bne	a2,v0,403cdc <tm1650_display_set+0x5c>
  403dd4:	24020035 	li	v0,53
  403dd8:	3c020042 	lui	v0,0x42
  403ddc:	08100f3c 	j	403cf0 <tm1650_display_set+0x70>
  403de0:	9052d768 	lbu	s2,-10392(v0)
  403de4:	3c020042 	lui	v0,0x42
  403de8:	08100f3c 	j	403cf0 <tm1650_display_set+0x70>
  403dec:	9052d764 	lbu	s2,-10396(v0)
  403df0:	24030036 	li	v1,54
  403df4:	14c3fff5 	bne	a2,v1,403dcc <tm1650_display_set+0x14c>
  403df8:	00000000 	nop
  403dfc:	10e20088 	beq	a3,v0,404020 <tm1650_display_set+0x3a0>
  403e00:	24020002 	li	v0,2
  403e04:	14e2fff2 	bne	a3,v0,403dd0 <tm1650_display_set+0x150>
  403e08:	24020034 	li	v0,52
  403e0c:	3c020042 	lui	v0,0x42
  403e10:	9043d760 	lbu	v1,-10400(v0)
  403e14:	34630002 	ori	v1,v1,0x2
  403e18:	08100f73 	j	403dcc <tm1650_display_set+0x14c>
  403e1c:	a043d760 	sb	v1,-10400(v0)
  403e20:	08100f3c 	j	403cf0 <tm1650_display_set+0x70>
  403e24:	9052d760 	lbu	s2,-10400(v0)
  403e28:	10e30054 	beq	a3,v1,403f7c <tm1650_display_set+0x2fc>
  403e2c:	24020002 	li	v0,2
  403e30:	10e20057 	beq	a3,v0,403f90 <tm1650_display_set+0x310>
  403e34:	24020004 	li	v0,4
  403e38:	10e2006e 	beq	a3,v0,403ff4 <tm1650_display_set+0x374>
  403e3c:	24020008 	li	v0,8
  403e40:	10e20049 	beq	a3,v0,403f68 <tm1650_display_set+0x2e8>
  403e44:	24020010 	li	v0,16
  403e48:	10e20084 	beq	a3,v0,40405c <tm1650_display_set+0x3dc>
  403e4c:	24020020 	li	v0,32
  403e50:	10e20096 	beq	a3,v0,4040ac <tm1650_display_set+0x42c>
  403e54:	24020040 	li	v0,64
  403e58:	14e2ffe0 	bne	a3,v0,403ddc <tm1650_display_set+0x15c>
  403e5c:	3c020042 	lui	v0,0x42
  403e60:	9052d768 	lbu	s2,-10392(v0)
  403e64:	325200bf 	andi	s2,s2,0xbf
  403e68:	08100f3c 	j	403cf0 <tm1650_display_set+0x70>
  403e6c:	a052d768 	sb	s2,-10392(v0)
  403e70:	10e30056 	beq	a3,v1,403fcc <tm1650_display_set+0x34c>
  403e74:	24020002 	li	v0,2
  403e78:	14e2ff98 	bne	a3,v0,403cdc <tm1650_display_set+0x5c>
  403e7c:	24020035 	li	v0,53
  403e80:	3c020042 	lui	v0,0x42
  403e84:	9043d760 	lbu	v1,-10400(v0)
  403e88:	306300fd 	andi	v1,v1,0xfd
  403e8c:	08100f36 	j	403cd8 <tm1650_display_set+0x58>
  403e90:	a043d760 	sb	v1,-10400(v0)
  403e94:	10e30043 	beq	a3,v1,403fa4 <tm1650_display_set+0x324>
  403e98:	24020002 	li	v0,2
  403e9c:	10e20050 	beq	a3,v0,403fe0 <tm1650_display_set+0x360>
  403ea0:	24020004 	li	v0,4
  403ea4:	10e2002b 	beq	a3,v0,403f54 <tm1650_display_set+0x2d4>
  403ea8:	24020008 	li	v0,8
  403eac:	10e20070 	beq	a3,v0,404070 <tm1650_display_set+0x3f0>
  403eb0:	24020010 	li	v0,16
  403eb4:	10e20082 	beq	a3,v0,4040c0 <tm1650_display_set+0x440>
  403eb8:	24020020 	li	v0,32
  403ebc:	10e2008f 	beq	a3,v0,4040fc <tm1650_display_set+0x47c>
  403ec0:	24020040 	li	v0,64
  403ec4:	14e2ff85 	bne	a3,v0,403cdc <tm1650_display_set+0x5c>
  403ec8:	24020035 	li	v0,53
  403ecc:	3c020042 	lui	v0,0x42
  403ed0:	9043d764 	lbu	v1,-10396(v0)
  403ed4:	306300bf 	andi	v1,v1,0xbf
  403ed8:	08100f36 	j	403cd8 <tm1650_display_set+0x58>
  403edc:	a043d764 	sb	v1,-10396(v0)
  403ee0:	10e20035 	beq	a3,v0,403fb8 <tm1650_display_set+0x338>
  403ee4:	24020002 	li	v0,2
  403ee8:	10e20015 	beq	a3,v0,403f40 <tm1650_display_set+0x2c0>
  403eec:	24020004 	li	v0,4
  403ef0:	10e20055 	beq	a3,v0,404048 <tm1650_display_set+0x3c8>
  403ef4:	24020008 	li	v0,8
  403ef8:	10e20067 	beq	a3,v0,404098 <tm1650_display_set+0x418>
  403efc:	24020010 	li	v0,16
  403f00:	10e20074 	beq	a3,v0,4040d4 <tm1650_display_set+0x454>
  403f04:	24020020 	li	v0,32
  403f08:	10e20081 	beq	a3,v0,404110 <tm1650_display_set+0x490>
  403f0c:	24020040 	li	v0,64
  403f10:	14e2ffaf 	bne	a3,v0,403dd0 <tm1650_display_set+0x150>
  403f14:	24020034 	li	v0,52
  403f18:	3c020042 	lui	v0,0x42
  403f1c:	9043d768 	lbu	v1,-10392(v0)
  403f20:	34630040 	ori	v1,v1,0x40
  403f24:	08100f73 	j	403dcc <tm1650_display_set+0x14c>
  403f28:	a043d768 	sb	v1,-10392(v0)
  403f2c:	3c020042 	lui	v0,0x42
  403f30:	9043d764 	lbu	v1,-10396(v0)
  403f34:	34630001 	ori	v1,v1,0x1
  403f38:	08100f73 	j	403dcc <tm1650_display_set+0x14c>
  403f3c:	a043d764 	sb	v1,-10396(v0)
  403f40:	3c020042 	lui	v0,0x42
  403f44:	9043d768 	lbu	v1,-10392(v0)
  403f48:	34630002 	ori	v1,v1,0x2
  403f4c:	08100f73 	j	403dcc <tm1650_display_set+0x14c>
  403f50:	a043d768 	sb	v1,-10392(v0)
  403f54:	3c020042 	lui	v0,0x42
  403f58:	9043d764 	lbu	v1,-10396(v0)
  403f5c:	306300fb 	andi	v1,v1,0xfb
  403f60:	08100f36 	j	403cd8 <tm1650_display_set+0x58>
  403f64:	a043d764 	sb	v1,-10396(v0)
  403f68:	3c020042 	lui	v0,0x42
  403f6c:	9052d768 	lbu	s2,-10392(v0)
  403f70:	325200f7 	andi	s2,s2,0xf7
  403f74:	08100f3c 	j	403cf0 <tm1650_display_set+0x70>
  403f78:	a052d768 	sb	s2,-10392(v0)
  403f7c:	3c020042 	lui	v0,0x42
  403f80:	9052d768 	lbu	s2,-10392(v0)
  403f84:	325200fe 	andi	s2,s2,0xfe
  403f88:	08100f3c 	j	403cf0 <tm1650_display_set+0x70>
  403f8c:	a052d768 	sb	s2,-10392(v0)
  403f90:	3c020042 	lui	v0,0x42
  403f94:	9052d768 	lbu	s2,-10392(v0)
  403f98:	325200fd 	andi	s2,s2,0xfd
  403f9c:	08100f3c 	j	403cf0 <tm1650_display_set+0x70>
  403fa0:	a052d768 	sb	s2,-10392(v0)
  403fa4:	3c020042 	lui	v0,0x42
  403fa8:	9043d764 	lbu	v1,-10396(v0)
  403fac:	306300fe 	andi	v1,v1,0xfe
  403fb0:	08100f36 	j	403cd8 <tm1650_display_set+0x58>
  403fb4:	a043d764 	sb	v1,-10396(v0)
  403fb8:	3c020042 	lui	v0,0x42
  403fbc:	9043d768 	lbu	v1,-10392(v0)
  403fc0:	34630001 	ori	v1,v1,0x1
  403fc4:	08100f73 	j	403dcc <tm1650_display_set+0x14c>
  403fc8:	a043d768 	sb	v1,-10392(v0)
  403fcc:	3c020042 	lui	v0,0x42
  403fd0:	9043d760 	lbu	v1,-10400(v0)
  403fd4:	306300fe 	andi	v1,v1,0xfe
  403fd8:	08100f36 	j	403cd8 <tm1650_display_set+0x58>
  403fdc:	a043d760 	sb	v1,-10400(v0)
  403fe0:	3c020042 	lui	v0,0x42
  403fe4:	9043d764 	lbu	v1,-10396(v0)
  403fe8:	306300fd 	andi	v1,v1,0xfd
  403fec:	08100f36 	j	403cd8 <tm1650_display_set+0x58>
  403ff0:	a043d764 	sb	v1,-10396(v0)
  403ff4:	3c020042 	lui	v0,0x42
  403ff8:	9052d768 	lbu	s2,-10392(v0)
  403ffc:	325200fb 	andi	s2,s2,0xfb
  404000:	08100f3c 	j	403cf0 <tm1650_display_set+0x70>
  404004:	a052d768 	sb	s2,-10392(v0)
  404008:	8f9981cc 	lw	t9,-32308(gp)
  40400c:	3c040041 	lui	a0,0x41
  404010:	0320f809 	jalr	t9
  404014:	2484bd30 	addiu	a0,a0,-17104
  404018:	08100f55 	j	403d54 <tm1650_display_set+0xd4>
  40401c:	2402ffff 	li	v0,-1
  404020:	3c020042 	lui	v0,0x42
  404024:	9043d760 	lbu	v1,-10400(v0)
  404028:	34630001 	ori	v1,v1,0x1
  40402c:	08100f73 	j	403dcc <tm1650_display_set+0x14c>
  404030:	a043d760 	sb	v1,-10400(v0)
  404034:	3c020042 	lui	v0,0x42
  404038:	9043d764 	lbu	v1,-10396(v0)
  40403c:	34630002 	ori	v1,v1,0x2
  404040:	08100f73 	j	403dcc <tm1650_display_set+0x14c>
  404044:	a043d764 	sb	v1,-10396(v0)
  404048:	3c020042 	lui	v0,0x42
  40404c:	9043d768 	lbu	v1,-10392(v0)
  404050:	34630004 	ori	v1,v1,0x4
  404054:	08100f73 	j	403dcc <tm1650_display_set+0x14c>
  404058:	a043d768 	sb	v1,-10392(v0)
  40405c:	3c020042 	lui	v0,0x42
  404060:	9052d768 	lbu	s2,-10392(v0)
  404064:	325200ef 	andi	s2,s2,0xef
  404068:	08100f3c 	j	403cf0 <tm1650_display_set+0x70>
  40406c:	a052d768 	sb	s2,-10392(v0)
  404070:	3c020042 	lui	v0,0x42
  404074:	9043d764 	lbu	v1,-10396(v0)
  404078:	306300f7 	andi	v1,v1,0xf7
  40407c:	08100f36 	j	403cd8 <tm1650_display_set+0x58>
  404080:	a043d764 	sb	v1,-10396(v0)
  404084:	3c020042 	lui	v0,0x42
  404088:	9043d764 	lbu	v1,-10396(v0)
  40408c:	34630004 	ori	v1,v1,0x4
  404090:	08100f73 	j	403dcc <tm1650_display_set+0x14c>
  404094:	a043d764 	sb	v1,-10396(v0)
  404098:	3c020042 	lui	v0,0x42
  40409c:	9043d768 	lbu	v1,-10392(v0)
  4040a0:	34630008 	ori	v1,v1,0x8
  4040a4:	08100f73 	j	403dcc <tm1650_display_set+0x14c>
  4040a8:	a043d768 	sb	v1,-10392(v0)
  4040ac:	3c020042 	lui	v0,0x42
  4040b0:	9052d768 	lbu	s2,-10392(v0)
  4040b4:	325200df 	andi	s2,s2,0xdf
  4040b8:	08100f3c 	j	403cf0 <tm1650_display_set+0x70>
  4040bc:	a052d768 	sb	s2,-10392(v0)
  4040c0:	3c020042 	lui	v0,0x42
  4040c4:	9043d764 	lbu	v1,-10396(v0)
  4040c8:	306300ef 	andi	v1,v1,0xef
  4040cc:	08100f36 	j	403cd8 <tm1650_display_set+0x58>
  4040d0:	a043d764 	sb	v1,-10396(v0)
  4040d4:	3c020042 	lui	v0,0x42
  4040d8:	9043d768 	lbu	v1,-10392(v0)
  4040dc:	34630010 	ori	v1,v1,0x10
  4040e0:	08100f73 	j	403dcc <tm1650_display_set+0x14c>
  4040e4:	a043d768 	sb	v1,-10392(v0)
  4040e8:	3c020042 	lui	v0,0x42
  4040ec:	9043d764 	lbu	v1,-10396(v0)
  4040f0:	34630008 	ori	v1,v1,0x8
  4040f4:	08100f73 	j	403dcc <tm1650_display_set+0x14c>
  4040f8:	a043d764 	sb	v1,-10396(v0)
  4040fc:	3c020042 	lui	v0,0x42
  404100:	9043d764 	lbu	v1,-10396(v0)
  404104:	306300df 	andi	v1,v1,0xdf
  404108:	08100f36 	j	403cd8 <tm1650_display_set+0x58>
  40410c:	a043d764 	sb	v1,-10396(v0)
  404110:	3c020042 	lui	v0,0x42
  404114:	9043d768 	lbu	v1,-10392(v0)
  404118:	34630020 	ori	v1,v1,0x20
  40411c:	08100f73 	j	403dcc <tm1650_display_set+0x14c>
  404120:	a043d768 	sb	v1,-10392(v0)
  404124:	3c020042 	lui	v0,0x42
  404128:	9043d764 	lbu	v1,-10396(v0)
  40412c:	34630010 	ori	v1,v1,0x10
  404130:	08100f73 	j	403dcc <tm1650_display_set+0x14c>
  404134:	a043d764 	sb	v1,-10396(v0)
  404138:	3c020042 	lui	v0,0x42
  40413c:	9043d764 	lbu	v1,-10396(v0)
  404140:	34630020 	ori	v1,v1,0x20
  404144:	08100f73 	j	403dcc <tm1650_display_set+0x14c>
  404148:	a043d764 	sb	v1,-10396(v0)

0040414c <tm1650_key_get.constprop.0>:
  40414c:	3c1c0042 	lui	gp,0x42
  404150:	27bdffd0 	addiu	sp,sp,-48
  404154:	279c5520 	addiu	gp,gp,21792
  404158:	afb20024 	sw	s2,36(sp)
  40415c:	afb10020 	sw	s1,32(sp)
  404160:	8f928070 	lw	s2,-32656(gp)
  404164:	8c910000 	lw	s1,0(a0)
  404168:	24020001 	li	v0,1
  40416c:	8f9981b8 	lw	t9,-32328(gp)
  404170:	24030024 	li	v1,36
  404174:	afbf002c 	sw	ra,44(sp)
  404178:	afb30028 	sw	s3,40(sp)
  40417c:	afb0001c 	sw	s0,28(sp)
  404180:	afbc0010 	sw	gp,16(sp)
  404184:	8e530000 	lw	s3,0(s2)
  404188:	ac820004 	sw	v0,4(a0)
  40418c:	00808021 	move	s0,a0
  404190:	a6230000 	sh	v1,0(s1)
  404194:	24040001 	li	a0,1
  404198:	a6220004 	sh	v0,4(s1)
  40419c:	0320f809 	jalr	t9
  4041a0:	a6220002 	sh	v0,2(s1)
  4041a4:	8fbc0010 	lw	gp,16(sp)
  4041a8:	ae220008 	sw	v0,8(s1)
  4041ac:	8f9981d0 	lw	t9,-32304(gp)
  4041b0:	02602021 	move	a0,s3
  4041b4:	a0400000 	sb	zero,0(v0)
  4041b8:	24050707 	li	a1,1799
  4041bc:	0320f809 	jalr	t9
  4041c0:	02003021 	move	a2,s0
  4041c4:	04400137 	bltz	v0,4046a4 <tm1650_key_get.constprop.0+0x558>
  4041c8:	8fbc0010 	lw	gp,16(sp)
  4041cc:	8e020000 	lw	v0,0(s0)
  4041d0:	8f9981ec 	lw	t9,-32276(gp)
  4041d4:	8c440008 	lw	a0,8(v0)
  4041d8:	0320f809 	jalr	t9
  4041dc:	90910000 	lbu	s1,0(a0)
  4041e0:	2622ffb9 	addiu	v0,s1,-71
  4041e4:	304200ff 	andi	v0,v0,0xff
  4041e8:	2c430031 	sltiu	v1,v0,49
  4041ec:	14600009 	bnez	v1,404214 <tm1650_key_get.constprop.0+0xc8>
  4041f0:	8fbc0010 	lw	gp,16(sp)
  4041f4:	8fbf002c 	lw	ra,44(sp)
  4041f8:	8fb30028 	lw	s3,40(sp)
  4041fc:	8fb20024 	lw	s2,36(sp)
  404200:	8fb10020 	lw	s1,32(sp)
  404204:	8fb0001c 	lw	s0,28(sp)
  404208:	00001021 	move	v0,zero
  40420c:	03e00008 	jr	ra
  404210:	27bd0030 	addiu	sp,sp,48
  404214:	3c030041 	lui	v1,0x41
  404218:	00021080 	sll	v0,v0,0x2
  40421c:	2463bf80 	addiu	v1,v1,-16512
  404220:	00621021 	addu	v0,v1,v0
  404224:	8c420000 	lw	v0,0(v0)
  404228:	00400008 	jr	v0
  40422c:	00000000 	nop
  404230:	8f9981cc 	lw	t9,-32308(gp)
  404234:	3c040041 	lui	a0,0x41
  404238:	0320f809 	jalr	t9
  40423c:	2484bd4c 	addiu	a0,a0,-17076
  404240:	8fbc0010 	lw	gp,16(sp)
  404244:	8f9981c4 	lw	t9,-32316(gp)
  404248:	0320f809 	jalr	t9
  40424c:	24042710 	li	a0,10000
  404250:	8fbc0010 	lw	gp,16(sp)
  404254:	8e110000 	lw	s1,0(s0)
  404258:	24020001 	li	v0,1
  40425c:	24030024 	li	v1,36
  404260:	8f9981b8 	lw	t9,-32328(gp)
  404264:	8e520000 	lw	s2,0(s2)
  404268:	ae020004 	sw	v0,4(s0)
  40426c:	24040001 	li	a0,1
  404270:	a6230000 	sh	v1,0(s1)
  404274:	a6220004 	sh	v0,4(s1)
  404278:	0320f809 	jalr	t9
  40427c:	a6220002 	sh	v0,2(s1)
  404280:	8fbc0010 	lw	gp,16(sp)
  404284:	ae220008 	sw	v0,8(s1)
  404288:	8f9981d0 	lw	t9,-32304(gp)
  40428c:	02402021 	move	a0,s2
  404290:	a0400000 	sb	zero,0(v0)
  404294:	24050707 	li	a1,1799
  404298:	0320f809 	jalr	t9
  40429c:	02003021 	move	a2,s0
  4042a0:	04400106 	bltz	v0,4046bc <tm1650_key_get.constprop.0+0x570>
  4042a4:	8fbc0010 	lw	gp,16(sp)
  4042a8:	8e020000 	lw	v0,0(s0)
  4042ac:	8f9981ec 	lw	t9,-32276(gp)
  4042b0:	8c440008 	lw	a0,8(v0)
  4042b4:	0320f809 	jalr	t9
  4042b8:	90900000 	lbu	s0,0(a0)
  4042bc:	3a100077 	xori	s0,s0,0x77
  4042c0:	24020077 	li	v0,119
  4042c4:	0010100b 	movn	v0,zero,s0
  4042c8:	8fbf002c 	lw	ra,44(sp)
  4042cc:	8fb30028 	lw	s3,40(sp)
  4042d0:	8fb20024 	lw	s2,36(sp)
  4042d4:	8fb10020 	lw	s1,32(sp)
  4042d8:	8fb0001c 	lw	s0,28(sp)
  4042dc:	03e00008 	jr	ra
  4042e0:	27bd0030 	addiu	sp,sp,48
  4042e4:	8f9981cc 	lw	t9,-32308(gp)
  4042e8:	3c040041 	lui	a0,0x41
  4042ec:	0320f809 	jalr	t9
  4042f0:	2484bd4c 	addiu	a0,a0,-17076
  4042f4:	8fbc0010 	lw	gp,16(sp)
  4042f8:	8f9981c4 	lw	t9,-32316(gp)
  4042fc:	0320f809 	jalr	t9
  404300:	24042710 	li	a0,10000
  404304:	8fbc0010 	lw	gp,16(sp)
  404308:	8e110000 	lw	s1,0(s0)
  40430c:	24020001 	li	v0,1
  404310:	24030024 	li	v1,36
  404314:	8f9981b8 	lw	t9,-32328(gp)
  404318:	8e530000 	lw	s3,0(s2)
  40431c:	ae020004 	sw	v0,4(s0)
  404320:	24040001 	li	a0,1
  404324:	a6230000 	sh	v1,0(s1)
  404328:	a6220004 	sh	v0,4(s1)
  40432c:	0320f809 	jalr	t9
  404330:	a6220002 	sh	v0,2(s1)
  404334:	8fbc0010 	lw	gp,16(sp)
  404338:	ae220008 	sw	v0,8(s1)
  40433c:	8f9981d0 	lw	t9,-32304(gp)
  404340:	02602021 	move	a0,s3
  404344:	a0400000 	sb	zero,0(v0)
  404348:	24050707 	li	a1,1799
  40434c:	0320f809 	jalr	t9
  404350:	02003021 	move	a2,s0
  404354:	0440ffb6 	bltz	v0,404230 <tm1650_key_get.constprop.0+0xe4>
  404358:	8fbc0010 	lw	gp,16(sp)
  40435c:	8e020000 	lw	v0,0(s0)
  404360:	8f9981ec 	lw	t9,-32276(gp)
  404364:	8c440008 	lw	a0,8(v0)
  404368:	0320f809 	jalr	t9
  40436c:	90910000 	lbu	s1,0(a0)
  404370:	2402006f 	li	v0,111
  404374:	1622ffb3 	bne	s1,v0,404244 <tm1650_key_get.constprop.0+0xf8>
  404378:	8fbc0010 	lw	gp,16(sp)
  40437c:	081010b3 	j	4042cc <tm1650_key_get.constprop.0+0x180>
  404380:	8fbf002c 	lw	ra,44(sp)
  404384:	8f9981cc 	lw	t9,-32308(gp)
  404388:	3c040041 	lui	a0,0x41
  40438c:	0320f809 	jalr	t9
  404390:	2484bd4c 	addiu	a0,a0,-17076
  404394:	8fbc0010 	lw	gp,16(sp)
  404398:	8f9981c4 	lw	t9,-32316(gp)
  40439c:	0320f809 	jalr	t9
  4043a0:	24042710 	li	a0,10000
  4043a4:	8fbc0010 	lw	gp,16(sp)
  4043a8:	8e110000 	lw	s1,0(s0)
  4043ac:	24020001 	li	v0,1
  4043b0:	24030024 	li	v1,36
  4043b4:	8f9981b8 	lw	t9,-32328(gp)
  4043b8:	8e530000 	lw	s3,0(s2)
  4043bc:	ae020004 	sw	v0,4(s0)
  4043c0:	24040001 	li	a0,1
  4043c4:	a6230000 	sh	v1,0(s1)
  4043c8:	a6220004 	sh	v0,4(s1)
  4043cc:	0320f809 	jalr	t9
  4043d0:	a6220002 	sh	v0,2(s1)
  4043d4:	8fbc0010 	lw	gp,16(sp)
  4043d8:	ae220008 	sw	v0,8(s1)
  4043dc:	8f9981d0 	lw	t9,-32304(gp)
  4043e0:	02602021 	move	a0,s3
  4043e4:	a0400000 	sb	zero,0(v0)
  4043e8:	24050707 	li	a1,1799
  4043ec:	0320f809 	jalr	t9
  4043f0:	02003021 	move	a2,s0
  4043f4:	0440ffbb 	bltz	v0,4042e4 <tm1650_key_get.constprop.0+0x198>
  4043f8:	8fbc0010 	lw	gp,16(sp)
  4043fc:	8e020000 	lw	v0,0(s0)
  404400:	8f9981ec 	lw	t9,-32276(gp)
  404404:	8c440008 	lw	a0,8(v0)
  404408:	0320f809 	jalr	t9
  40440c:	90910000 	lbu	s1,0(a0)
  404410:	24020067 	li	v0,103
  404414:	1622ffb8 	bne	s1,v0,4042f8 <tm1650_key_get.constprop.0+0x1ac>
  404418:	8fbc0010 	lw	gp,16(sp)
  40441c:	081010b3 	j	4042cc <tm1650_key_get.constprop.0+0x180>
  404420:	8fbf002c 	lw	ra,44(sp)
  404424:	8f9981cc 	lw	t9,-32308(gp)
  404428:	3c040041 	lui	a0,0x41
  40442c:	0320f809 	jalr	t9
  404430:	2484bd4c 	addiu	a0,a0,-17076
  404434:	8fbc0010 	lw	gp,16(sp)
  404438:	8f9981c4 	lw	t9,-32316(gp)
  40443c:	0320f809 	jalr	t9
  404440:	24042710 	li	a0,10000
  404444:	8fbc0010 	lw	gp,16(sp)
  404448:	8e110000 	lw	s1,0(s0)
  40444c:	24020001 	li	v0,1
  404450:	24030024 	li	v1,36
  404454:	8f9981b8 	lw	t9,-32328(gp)
  404458:	8e530000 	lw	s3,0(s2)
  40445c:	ae020004 	sw	v0,4(s0)
  404460:	24040001 	li	a0,1
  404464:	a6230000 	sh	v1,0(s1)
  404468:	a6220004 	sh	v0,4(s1)
  40446c:	0320f809 	jalr	t9
  404470:	a6220002 	sh	v0,2(s1)
  404474:	8fbc0010 	lw	gp,16(sp)
  404478:	ae220008 	sw	v0,8(s1)
  40447c:	8f9981d0 	lw	t9,-32304(gp)
  404480:	02602021 	move	a0,s3
  404484:	a0400000 	sb	zero,0(v0)
  404488:	24050707 	li	a1,1799
  40448c:	0320f809 	jalr	t9
  404490:	02003021 	move	a2,s0
  404494:	0440ffbb 	bltz	v0,404384 <tm1650_key_get.constprop.0+0x238>
  404498:	8fbc0010 	lw	gp,16(sp)
  40449c:	8e020000 	lw	v0,0(s0)
  4044a0:	8f9981ec 	lw	t9,-32276(gp)
  4044a4:	8c440008 	lw	a0,8(v0)
  4044a8:	0320f809 	jalr	t9
  4044ac:	90910000 	lbu	s1,0(a0)
  4044b0:	2402005f 	li	v0,95
  4044b4:	1622ffb8 	bne	s1,v0,404398 <tm1650_key_get.constprop.0+0x24c>
  4044b8:	8fbc0010 	lw	gp,16(sp)
  4044bc:	081010b3 	j	4042cc <tm1650_key_get.constprop.0+0x180>
  4044c0:	8fbf002c 	lw	ra,44(sp)
  4044c4:	8f9981cc 	lw	t9,-32308(gp)
  4044c8:	3c040041 	lui	a0,0x41
  4044cc:	0320f809 	jalr	t9
  4044d0:	2484bd4c 	addiu	a0,a0,-17076
  4044d4:	8fbc0010 	lw	gp,16(sp)
  4044d8:	8f9981c4 	lw	t9,-32316(gp)
  4044dc:	0320f809 	jalr	t9
  4044e0:	24042710 	li	a0,10000
  4044e4:	8fbc0010 	lw	gp,16(sp)
  4044e8:	8e110000 	lw	s1,0(s0)
  4044ec:	24020001 	li	v0,1
  4044f0:	24030024 	li	v1,36
  4044f4:	8f9981b8 	lw	t9,-32328(gp)
  4044f8:	8e530000 	lw	s3,0(s2)
  4044fc:	ae020004 	sw	v0,4(s0)
  404500:	24040001 	li	a0,1
  404504:	a6230000 	sh	v1,0(s1)
  404508:	a6220004 	sh	v0,4(s1)
  40450c:	0320f809 	jalr	t9
  404510:	a6220002 	sh	v0,2(s1)
  404514:	8fbc0010 	lw	gp,16(sp)
  404518:	ae220008 	sw	v0,8(s1)
  40451c:	8f9981d0 	lw	t9,-32304(gp)
  404520:	02602021 	move	a0,s3
  404524:	a0400000 	sb	zero,0(v0)
  404528:	24050707 	li	a1,1799
  40452c:	0320f809 	jalr	t9
  404530:	02003021 	move	a2,s0
  404534:	0440ffbb 	bltz	v0,404424 <tm1650_key_get.constprop.0+0x2d8>
  404538:	8fbc0010 	lw	gp,16(sp)
  40453c:	8e020000 	lw	v0,0(s0)
  404540:	8f9981ec 	lw	t9,-32276(gp)
  404544:	8c440008 	lw	a0,8(v0)
  404548:	0320f809 	jalr	t9
  40454c:	90910000 	lbu	s1,0(a0)
  404550:	24020057 	li	v0,87
  404554:	1622ffb8 	bne	s1,v0,404438 <tm1650_key_get.constprop.0+0x2ec>
  404558:	8fbc0010 	lw	gp,16(sp)
  40455c:	081010b3 	j	4042cc <tm1650_key_get.constprop.0+0x180>
  404560:	8fbf002c 	lw	ra,44(sp)
  404564:	8f9981cc 	lw	t9,-32308(gp)
  404568:	3c040041 	lui	a0,0x41
  40456c:	0320f809 	jalr	t9
  404570:	2484bd4c 	addiu	a0,a0,-17076
  404574:	8fbc0010 	lw	gp,16(sp)
  404578:	8f9981c4 	lw	t9,-32316(gp)
  40457c:	0320f809 	jalr	t9
  404580:	24042710 	li	a0,10000
  404584:	8fbc0010 	lw	gp,16(sp)
  404588:	3c040041 	lui	a0,0x41
  40458c:	8f9981b4 	lw	t9,-32332(gp)
  404590:	0320f809 	jalr	t9
  404594:	2484bd64 	addiu	a0,a0,-17052
  404598:	8fbc0010 	lw	gp,16(sp)
  40459c:	8e110000 	lw	s1,0(s0)
  4045a0:	24020001 	li	v0,1
  4045a4:	24030024 	li	v1,36
  4045a8:	8f9981b8 	lw	t9,-32328(gp)
  4045ac:	8e530000 	lw	s3,0(s2)
  4045b0:	ae020004 	sw	v0,4(s0)
  4045b4:	24040001 	li	a0,1
  4045b8:	a6230000 	sh	v1,0(s1)
  4045bc:	a6220004 	sh	v0,4(s1)
  4045c0:	0320f809 	jalr	t9
  4045c4:	a6220002 	sh	v0,2(s1)
  4045c8:	8fbc0010 	lw	gp,16(sp)
  4045cc:	ae220008 	sw	v0,8(s1)
  4045d0:	8f9981d0 	lw	t9,-32304(gp)
  4045d4:	02602021 	move	a0,s3
  4045d8:	a0400000 	sb	zero,0(v0)
  4045dc:	24050707 	li	a1,1799
  4045e0:	0320f809 	jalr	t9
  4045e4:	02003021 	move	a2,s0
  4045e8:	0440ffb6 	bltz	v0,4044c4 <tm1650_key_get.constprop.0+0x378>
  4045ec:	8fbc0010 	lw	gp,16(sp)
  4045f0:	8e020000 	lw	v0,0(s0)
  4045f4:	8f9981ec 	lw	t9,-32276(gp)
  4045f8:	8c440008 	lw	a0,8(v0)
  4045fc:	0320f809 	jalr	t9
  404600:	90910000 	lbu	s1,0(a0)
  404604:	2402004f 	li	v0,79
  404608:	1622ffb3 	bne	s1,v0,4044d8 <tm1650_key_get.constprop.0+0x38c>
  40460c:	8fbc0010 	lw	gp,16(sp)
  404610:	081010b3 	j	4042cc <tm1650_key_get.constprop.0+0x180>
  404614:	8fbf002c 	lw	ra,44(sp)
  404618:	8f9981c4 	lw	t9,-32316(gp)
  40461c:	0320f809 	jalr	t9
  404620:	24042710 	li	a0,10000
  404624:	8fbc0010 	lw	gp,16(sp)
  404628:	8e110000 	lw	s1,0(s0)
  40462c:	24020001 	li	v0,1
  404630:	24030024 	li	v1,36
  404634:	8f9981b8 	lw	t9,-32328(gp)
  404638:	8e530000 	lw	s3,0(s2)
  40463c:	ae020004 	sw	v0,4(s0)
  404640:	24040001 	li	a0,1
  404644:	a6230000 	sh	v1,0(s1)
  404648:	a6220004 	sh	v0,4(s1)
  40464c:	0320f809 	jalr	t9
  404650:	a6220002 	sh	v0,2(s1)
  404654:	8fbc0010 	lw	gp,16(sp)
  404658:	ae220008 	sw	v0,8(s1)
  40465c:	8f9981d0 	lw	t9,-32304(gp)
  404660:	02602021 	move	a0,s3
  404664:	a0400000 	sb	zero,0(v0)
  404668:	24050707 	li	a1,1799
  40466c:	0320f809 	jalr	t9
  404670:	02003021 	move	a2,s0
  404674:	0440ffbb 	bltz	v0,404564 <tm1650_key_get.constprop.0+0x418>
  404678:	8fbc0010 	lw	gp,16(sp)
  40467c:	8e020000 	lw	v0,0(s0)
  404680:	8f9981ec 	lw	t9,-32276(gp)
  404684:	8c440008 	lw	a0,8(v0)
  404688:	0320f809 	jalr	t9
  40468c:	90910000 	lbu	s1,0(a0)
  404690:	24020047 	li	v0,71
  404694:	1622ffb8 	bne	s1,v0,404578 <tm1650_key_get.constprop.0+0x42c>
  404698:	8fbc0010 	lw	gp,16(sp)
  40469c:	081010b3 	j	4042cc <tm1650_key_get.constprop.0+0x180>
  4046a0:	8fbf002c 	lw	ra,44(sp)
  4046a4:	8f9981cc 	lw	t9,-32308(gp)
  4046a8:	3c040041 	lui	a0,0x41
  4046ac:	0320f809 	jalr	t9
  4046b0:	2484bd4c 	addiu	a0,a0,-17076
  4046b4:	081010b3 	j	4042cc <tm1650_key_get.constprop.0+0x180>
  4046b8:	8fbf002c 	lw	ra,44(sp)
  4046bc:	8f9981cc 	lw	t9,-32308(gp)
  4046c0:	3c040041 	lui	a0,0x41
  4046c4:	0320f809 	jalr	t9
  4046c8:	2484bd4c 	addiu	a0,a0,-17076
  4046cc:	081010b2 	j	4042c8 <tm1650_key_get.constprop.0+0x17c>
  4046d0:	00001021 	move	v0,zero

004046d4 <tm1650_key_get>:
  4046d4:	3c1c0042 	lui	gp,0x42
  4046d8:	27bdffd0 	addiu	sp,sp,-48
  4046dc:	279c5520 	addiu	gp,gp,21792
  4046e0:	afb20020 	sw	s2,32(sp)
  4046e4:	afb1001c 	sw	s1,28(sp)
  4046e8:	8f928070 	lw	s2,-32656(gp)
  4046ec:	8cb10000 	lw	s1,0(a1)
  4046f0:	24020001 	li	v0,1
  4046f4:	8f9981b8 	lw	t9,-32328(gp)
  4046f8:	24030024 	li	v1,36
  4046fc:	afbf002c 	sw	ra,44(sp)
  404700:	afb40028 	sw	s4,40(sp)
  404704:	afb30024 	sw	s3,36(sp)
  404708:	afb00018 	sw	s0,24(sp)
  40470c:	afbc0010 	sw	gp,16(sp)
  404710:	8e540000 	lw	s4,0(s2)
  404714:	aca20004 	sw	v0,4(a1)
  404718:	24040001 	li	a0,1
  40471c:	a6230000 	sh	v1,0(s1)
  404720:	a6220004 	sh	v0,4(s1)
  404724:	a6220002 	sh	v0,2(s1)
  404728:	00a08021 	move	s0,a1
  40472c:	0320f809 	jalr	t9
  404730:	00c09821 	move	s3,a2
  404734:	8fbc0010 	lw	gp,16(sp)
  404738:	ae220008 	sw	v0,8(s1)
  40473c:	8f9981d0 	lw	t9,-32304(gp)
  404740:	02802021 	move	a0,s4
  404744:	a0400000 	sb	zero,0(v0)
  404748:	24050707 	li	a1,1799
  40474c:	0320f809 	jalr	t9
  404750:	02003021 	move	a2,s0
  404754:	04400139 	bltz	v0,404c3c <tm1650_key_get+0x568>
  404758:	8fbc0010 	lw	gp,16(sp)
  40475c:	8e020000 	lw	v0,0(s0)
  404760:	8f9981ec 	lw	t9,-32276(gp)
  404764:	8c440008 	lw	a0,8(v0)
  404768:	0320f809 	jalr	t9
  40476c:	90910000 	lbu	s1,0(a0)
  404770:	2622ffb9 	addiu	v0,s1,-71
  404774:	304200ff 	andi	v0,v0,0xff
  404778:	2c430031 	sltiu	v1,v0,49
  40477c:	1460000a 	bnez	v1,4047a8 <tm1650_key_get+0xd4>
  404780:	8fbc0010 	lw	gp,16(sp)
  404784:	8fbf002c 	lw	ra,44(sp)
  404788:	8fb40028 	lw	s4,40(sp)
  40478c:	8fb30024 	lw	s3,36(sp)
  404790:	8fb20020 	lw	s2,32(sp)
  404794:	8fb1001c 	lw	s1,28(sp)
  404798:	8fb00018 	lw	s0,24(sp)
  40479c:	00001021 	move	v0,zero
  4047a0:	03e00008 	jr	ra
  4047a4:	27bd0030 	addiu	sp,sp,48
  4047a8:	3c030041 	lui	v1,0x41
  4047ac:	00021080 	sll	v0,v0,0x2
  4047b0:	2463c044 	addiu	v1,v1,-16316
  4047b4:	00621021 	addu	v0,v1,v0
  4047b8:	8c420000 	lw	v0,0(v0)
  4047bc:	00400008 	jr	v0
  4047c0:	00000000 	nop
  4047c4:	8f9981cc 	lw	t9,-32308(gp)
  4047c8:	3c040041 	lui	a0,0x41
  4047cc:	0320f809 	jalr	t9
  4047d0:	2484bd4c 	addiu	a0,a0,-17076
  4047d4:	8fbc0010 	lw	gp,16(sp)
  4047d8:	8f9981c4 	lw	t9,-32316(gp)
  4047dc:	0320f809 	jalr	t9
  4047e0:	02602021 	move	a0,s3
  4047e4:	8fbc0010 	lw	gp,16(sp)
  4047e8:	8e110000 	lw	s1,0(s0)
  4047ec:	24020001 	li	v0,1
  4047f0:	24030024 	li	v1,36
  4047f4:	8f9981b8 	lw	t9,-32328(gp)
  4047f8:	8e520000 	lw	s2,0(s2)
  4047fc:	ae020004 	sw	v0,4(s0)
  404800:	24040001 	li	a0,1
  404804:	a6230000 	sh	v1,0(s1)
  404808:	a6220004 	sh	v0,4(s1)
  40480c:	0320f809 	jalr	t9
  404810:	a6220002 	sh	v0,2(s1)
  404814:	8fbc0010 	lw	gp,16(sp)
  404818:	ae220008 	sw	v0,8(s1)
  40481c:	8f9981d0 	lw	t9,-32304(gp)
  404820:	02402021 	move	a0,s2
  404824:	a0400000 	sb	zero,0(v0)
  404828:	24050707 	li	a1,1799
  40482c:	0320f809 	jalr	t9
  404830:	02003021 	move	a2,s0
  404834:	04400107 	bltz	v0,404c54 <tm1650_key_get+0x580>
  404838:	8fbc0010 	lw	gp,16(sp)
  40483c:	8e020000 	lw	v0,0(s0)
  404840:	8f9981ec 	lw	t9,-32276(gp)
  404844:	8c440008 	lw	a0,8(v0)
  404848:	0320f809 	jalr	t9
  40484c:	90900000 	lbu	s0,0(a0)
  404850:	3a100077 	xori	s0,s0,0x77
  404854:	24020077 	li	v0,119
  404858:	0010100b 	movn	v0,zero,s0
  40485c:	8fbf002c 	lw	ra,44(sp)
  404860:	8fb40028 	lw	s4,40(sp)
  404864:	8fb30024 	lw	s3,36(sp)
  404868:	8fb20020 	lw	s2,32(sp)
  40486c:	8fb1001c 	lw	s1,28(sp)
  404870:	8fb00018 	lw	s0,24(sp)
  404874:	03e00008 	jr	ra
  404878:	27bd0030 	addiu	sp,sp,48
  40487c:	8f9981cc 	lw	t9,-32308(gp)
  404880:	3c040041 	lui	a0,0x41
  404884:	0320f809 	jalr	t9
  404888:	2484bd4c 	addiu	a0,a0,-17076
  40488c:	8fbc0010 	lw	gp,16(sp)
  404890:	8f9981c4 	lw	t9,-32316(gp)
  404894:	0320f809 	jalr	t9
  404898:	02602021 	move	a0,s3
  40489c:	8fbc0010 	lw	gp,16(sp)
  4048a0:	8e110000 	lw	s1,0(s0)
  4048a4:	24020001 	li	v0,1
  4048a8:	24030024 	li	v1,36
  4048ac:	8f9981b8 	lw	t9,-32328(gp)
  4048b0:	8e540000 	lw	s4,0(s2)
  4048b4:	ae020004 	sw	v0,4(s0)
  4048b8:	24040001 	li	a0,1
  4048bc:	a6230000 	sh	v1,0(s1)
  4048c0:	a6220004 	sh	v0,4(s1)
  4048c4:	0320f809 	jalr	t9
  4048c8:	a6220002 	sh	v0,2(s1)
  4048cc:	8fbc0010 	lw	gp,16(sp)
  4048d0:	ae220008 	sw	v0,8(s1)
  4048d4:	8f9981d0 	lw	t9,-32304(gp)
  4048d8:	02802021 	move	a0,s4
  4048dc:	a0400000 	sb	zero,0(v0)
  4048e0:	24050707 	li	a1,1799
  4048e4:	0320f809 	jalr	t9
  4048e8:	02003021 	move	a2,s0
  4048ec:	0440ffb5 	bltz	v0,4047c4 <tm1650_key_get+0xf0>
  4048f0:	8fbc0010 	lw	gp,16(sp)
  4048f4:	8e020000 	lw	v0,0(s0)
  4048f8:	8f9981ec 	lw	t9,-32276(gp)
  4048fc:	8c440008 	lw	a0,8(v0)
  404900:	0320f809 	jalr	t9
  404904:	90910000 	lbu	s1,0(a0)
  404908:	2402006f 	li	v0,111
  40490c:	1622ffb2 	bne	s1,v0,4047d8 <tm1650_key_get+0x104>
  404910:	8fbc0010 	lw	gp,16(sp)
  404914:	08101218 	j	404860 <tm1650_key_get+0x18c>
  404918:	8fbf002c 	lw	ra,44(sp)
  40491c:	8f9981cc 	lw	t9,-32308(gp)
  404920:	3c040041 	lui	a0,0x41
  404924:	0320f809 	jalr	t9
  404928:	2484bd4c 	addiu	a0,a0,-17076
  40492c:	8fbc0010 	lw	gp,16(sp)
  404930:	8f9981c4 	lw	t9,-32316(gp)
  404934:	0320f809 	jalr	t9
  404938:	02602021 	move	a0,s3
  40493c:	8fbc0010 	lw	gp,16(sp)
  404940:	8e110000 	lw	s1,0(s0)
  404944:	24020001 	li	v0,1
  404948:	24030024 	li	v1,36
  40494c:	8f9981b8 	lw	t9,-32328(gp)
  404950:	8e540000 	lw	s4,0(s2)
  404954:	ae020004 	sw	v0,4(s0)
  404958:	24040001 	li	a0,1
  40495c:	a6230000 	sh	v1,0(s1)
  404960:	a6220004 	sh	v0,4(s1)
  404964:	0320f809 	jalr	t9
  404968:	a6220002 	sh	v0,2(s1)
  40496c:	8fbc0010 	lw	gp,16(sp)
  404970:	ae220008 	sw	v0,8(s1)
  404974:	8f9981d0 	lw	t9,-32304(gp)
  404978:	02802021 	move	a0,s4
  40497c:	a0400000 	sb	zero,0(v0)
  404980:	24050707 	li	a1,1799
  404984:	0320f809 	jalr	t9
  404988:	02003021 	move	a2,s0
  40498c:	0440ffbb 	bltz	v0,40487c <tm1650_key_get+0x1a8>
  404990:	8fbc0010 	lw	gp,16(sp)
  404994:	8e020000 	lw	v0,0(s0)
  404998:	8f9981ec 	lw	t9,-32276(gp)
  40499c:	8c440008 	lw	a0,8(v0)
  4049a0:	0320f809 	jalr	t9
  4049a4:	90910000 	lbu	s1,0(a0)
  4049a8:	24020067 	li	v0,103
  4049ac:	1622ffb8 	bne	s1,v0,404890 <tm1650_key_get+0x1bc>
  4049b0:	8fbc0010 	lw	gp,16(sp)
  4049b4:	08101218 	j	404860 <tm1650_key_get+0x18c>
  4049b8:	8fbf002c 	lw	ra,44(sp)
  4049bc:	8f9981cc 	lw	t9,-32308(gp)
  4049c0:	3c040041 	lui	a0,0x41
  4049c4:	0320f809 	jalr	t9
  4049c8:	2484bd4c 	addiu	a0,a0,-17076
  4049cc:	8fbc0010 	lw	gp,16(sp)
  4049d0:	8f9981c4 	lw	t9,-32316(gp)
  4049d4:	0320f809 	jalr	t9
  4049d8:	02602021 	move	a0,s3
  4049dc:	8fbc0010 	lw	gp,16(sp)
  4049e0:	8e110000 	lw	s1,0(s0)
  4049e4:	24020001 	li	v0,1
  4049e8:	24030024 	li	v1,36
  4049ec:	8f9981b8 	lw	t9,-32328(gp)
  4049f0:	8e540000 	lw	s4,0(s2)
  4049f4:	ae020004 	sw	v0,4(s0)
  4049f8:	24040001 	li	a0,1
  4049fc:	a6230000 	sh	v1,0(s1)
  404a00:	a6220004 	sh	v0,4(s1)
  404a04:	0320f809 	jalr	t9
  404a08:	a6220002 	sh	v0,2(s1)
  404a0c:	8fbc0010 	lw	gp,16(sp)
  404a10:	ae220008 	sw	v0,8(s1)
  404a14:	8f9981d0 	lw	t9,-32304(gp)
  404a18:	02802021 	move	a0,s4
  404a1c:	a0400000 	sb	zero,0(v0)
  404a20:	24050707 	li	a1,1799
  404a24:	0320f809 	jalr	t9
  404a28:	02003021 	move	a2,s0
  404a2c:	0440ffbb 	bltz	v0,40491c <tm1650_key_get+0x248>
  404a30:	8fbc0010 	lw	gp,16(sp)
  404a34:	8e020000 	lw	v0,0(s0)
  404a38:	8f9981ec 	lw	t9,-32276(gp)
  404a3c:	8c440008 	lw	a0,8(v0)
  404a40:	0320f809 	jalr	t9
  404a44:	90910000 	lbu	s1,0(a0)
  404a48:	2402005f 	li	v0,95
  404a4c:	1622ffb8 	bne	s1,v0,404930 <tm1650_key_get+0x25c>
  404a50:	8fbc0010 	lw	gp,16(sp)
  404a54:	08101218 	j	404860 <tm1650_key_get+0x18c>
  404a58:	8fbf002c 	lw	ra,44(sp)
  404a5c:	8f9981cc 	lw	t9,-32308(gp)
  404a60:	3c040041 	lui	a0,0x41
  404a64:	0320f809 	jalr	t9
  404a68:	2484bd4c 	addiu	a0,a0,-17076
  404a6c:	8fbc0010 	lw	gp,16(sp)
  404a70:	8f9981c4 	lw	t9,-32316(gp)
  404a74:	0320f809 	jalr	t9
  404a78:	02602021 	move	a0,s3
  404a7c:	8fbc0010 	lw	gp,16(sp)
  404a80:	8e110000 	lw	s1,0(s0)
  404a84:	24020001 	li	v0,1
  404a88:	24030024 	li	v1,36
  404a8c:	8f9981b8 	lw	t9,-32328(gp)
  404a90:	8e540000 	lw	s4,0(s2)
  404a94:	ae020004 	sw	v0,4(s0)
  404a98:	24040001 	li	a0,1
  404a9c:	a6230000 	sh	v1,0(s1)
  404aa0:	a6220004 	sh	v0,4(s1)
  404aa4:	0320f809 	jalr	t9
  404aa8:	a6220002 	sh	v0,2(s1)
  404aac:	8fbc0010 	lw	gp,16(sp)
  404ab0:	ae220008 	sw	v0,8(s1)
  404ab4:	8f9981d0 	lw	t9,-32304(gp)
  404ab8:	02802021 	move	a0,s4
  404abc:	a0400000 	sb	zero,0(v0)
  404ac0:	24050707 	li	a1,1799
  404ac4:	0320f809 	jalr	t9
  404ac8:	02003021 	move	a2,s0
  404acc:	0440ffbb 	bltz	v0,4049bc <tm1650_key_get+0x2e8>
  404ad0:	8fbc0010 	lw	gp,16(sp)
  404ad4:	8e020000 	lw	v0,0(s0)
  404ad8:	8f9981ec 	lw	t9,-32276(gp)
  404adc:	8c440008 	lw	a0,8(v0)
  404ae0:	0320f809 	jalr	t9
  404ae4:	90910000 	lbu	s1,0(a0)
  404ae8:	24020057 	li	v0,87
  404aec:	1622ffb8 	bne	s1,v0,4049d0 <tm1650_key_get+0x2fc>
  404af0:	8fbc0010 	lw	gp,16(sp)
  404af4:	08101218 	j	404860 <tm1650_key_get+0x18c>
  404af8:	8fbf002c 	lw	ra,44(sp)
  404afc:	8f9981cc 	lw	t9,-32308(gp)
  404b00:	3c040041 	lui	a0,0x41
  404b04:	0320f809 	jalr	t9
  404b08:	2484bd4c 	addiu	a0,a0,-17076
  404b0c:	8fbc0010 	lw	gp,16(sp)
  404b10:	8f9981c4 	lw	t9,-32316(gp)
  404b14:	0320f809 	jalr	t9
  404b18:	02602021 	move	a0,s3
  404b1c:	8fbc0010 	lw	gp,16(sp)
  404b20:	3c040041 	lui	a0,0x41
  404b24:	8f9981b4 	lw	t9,-32332(gp)
  404b28:	0320f809 	jalr	t9
  404b2c:	2484bd64 	addiu	a0,a0,-17052
  404b30:	8fbc0010 	lw	gp,16(sp)
  404b34:	8e110000 	lw	s1,0(s0)
  404b38:	24020001 	li	v0,1
  404b3c:	24030024 	li	v1,36
  404b40:	8f9981b8 	lw	t9,-32328(gp)
  404b44:	8e540000 	lw	s4,0(s2)
  404b48:	ae020004 	sw	v0,4(s0)
  404b4c:	24040001 	li	a0,1
  404b50:	a6230000 	sh	v1,0(s1)
  404b54:	a6220004 	sh	v0,4(s1)
  404b58:	0320f809 	jalr	t9
  404b5c:	a6220002 	sh	v0,2(s1)
  404b60:	8fbc0010 	lw	gp,16(sp)
  404b64:	ae220008 	sw	v0,8(s1)
  404b68:	8f9981d0 	lw	t9,-32304(gp)
  404b6c:	02802021 	move	a0,s4
  404b70:	a0400000 	sb	zero,0(v0)
  404b74:	24050707 	li	a1,1799
  404b78:	0320f809 	jalr	t9
  404b7c:	02003021 	move	a2,s0
  404b80:	0440ffb6 	bltz	v0,404a5c <tm1650_key_get+0x388>
  404b84:	8fbc0010 	lw	gp,16(sp)
  404b88:	8e020000 	lw	v0,0(s0)
  404b8c:	8f9981ec 	lw	t9,-32276(gp)
  404b90:	8c440008 	lw	a0,8(v0)
  404b94:	0320f809 	jalr	t9
  404b98:	90910000 	lbu	s1,0(a0)
  404b9c:	2402004f 	li	v0,79
  404ba0:	1622ffb3 	bne	s1,v0,404a70 <tm1650_key_get+0x39c>
  404ba4:	8fbc0010 	lw	gp,16(sp)
  404ba8:	08101218 	j	404860 <tm1650_key_get+0x18c>
  404bac:	8fbf002c 	lw	ra,44(sp)
  404bb0:	8f9981c4 	lw	t9,-32316(gp)
  404bb4:	0320f809 	jalr	t9
  404bb8:	02602021 	move	a0,s3
  404bbc:	8fbc0010 	lw	gp,16(sp)
  404bc0:	8e110000 	lw	s1,0(s0)
  404bc4:	24020001 	li	v0,1
  404bc8:	24030024 	li	v1,36
  404bcc:	8f9981b8 	lw	t9,-32328(gp)
  404bd0:	8e540000 	lw	s4,0(s2)
  404bd4:	ae020004 	sw	v0,4(s0)
  404bd8:	24040001 	li	a0,1
  404bdc:	a6230000 	sh	v1,0(s1)
  404be0:	a6220004 	sh	v0,4(s1)
  404be4:	0320f809 	jalr	t9
  404be8:	a6220002 	sh	v0,2(s1)
  404bec:	8fbc0010 	lw	gp,16(sp)
  404bf0:	ae220008 	sw	v0,8(s1)
  404bf4:	8f9981d0 	lw	t9,-32304(gp)
  404bf8:	02802021 	move	a0,s4
  404bfc:	a0400000 	sb	zero,0(v0)
  404c00:	24050707 	li	a1,1799
  404c04:	0320f809 	jalr	t9
  404c08:	02003021 	move	a2,s0
  404c0c:	0440ffbb 	bltz	v0,404afc <tm1650_key_get+0x428>
  404c10:	8fbc0010 	lw	gp,16(sp)
  404c14:	8e020000 	lw	v0,0(s0)
  404c18:	8f9981ec 	lw	t9,-32276(gp)
  404c1c:	8c440008 	lw	a0,8(v0)
  404c20:	0320f809 	jalr	t9
  404c24:	90910000 	lbu	s1,0(a0)
  404c28:	24020047 	li	v0,71
  404c2c:	1622ffb8 	bne	s1,v0,404b10 <tm1650_key_get+0x43c>
  404c30:	8fbc0010 	lw	gp,16(sp)
  404c34:	08101218 	j	404860 <tm1650_key_get+0x18c>
  404c38:	8fbf002c 	lw	ra,44(sp)
  404c3c:	8f9981cc 	lw	t9,-32308(gp)
  404c40:	3c040041 	lui	a0,0x41
  404c44:	0320f809 	jalr	t9
  404c48:	2484bd4c 	addiu	a0,a0,-17076
  404c4c:	08101218 	j	404860 <tm1650_key_get+0x18c>
  404c50:	8fbf002c 	lw	ra,44(sp)
  404c54:	8f9981cc 	lw	t9,-32308(gp)
  404c58:	3c040041 	lui	a0,0x41
  404c5c:	0320f809 	jalr	t9
  404c60:	2484bd4c 	addiu	a0,a0,-17076
  404c64:	08101217 	j	40485c <tm1650_key_get+0x188>
  404c68:	00001021 	move	v0,zero

00404c6c <led_power_display>:
  404c6c:	3c1c0042 	lui	gp,0x42
  404c70:	279c5520 	addiu	gp,gp,21792
  404c74:	8f838074 	lw	v1,-32652(gp)
  404c78:	8f828070 	lw	v0,-32656(gp)
  404c7c:	8c650000 	lw	a1,0(v1)
  404c80:	3c030042 	lui	v1,0x42
  404c84:	8c420000 	lw	v0,0(v0)
  404c88:	9066d4f8 	lbu	a2,-11016(v1)
  404c8c:	3c030042 	lui	v1,0x42
  404c90:	27bdffd8 	addiu	sp,sp,-40
  404c94:	9067d4f0 	lbu	a3,-11024(v1)
  404c98:	afa40010 	sw	a0,16(sp)
  404c9c:	afbf0024 	sw	ra,36(sp)
  404ca0:	afbc0018 	sw	gp,24(sp)
  404ca4:	0c100f20 	jal	403c80 <tm1650_display_set>
  404ca8:	00402021 	move	a0,v0
  404cac:	28420000 	slti	v0,v0,0
  404cb0:	8fbf0024 	lw	ra,36(sp)
  404cb4:	24040001 	li	a0,1
  404cb8:	2403ffff 	li	v1,-1
  404cbc:	0082180a 	movz	v1,a0,v0
  404cc0:	00601021 	move	v0,v1
  404cc4:	03e00008 	jr	ra
  404cc8:	27bd0028 	addiu	sp,sp,40

00404ccc <led_system_run_display>:
  404ccc:	3c1c0042 	lui	gp,0x42
  404cd0:	279c5520 	addiu	gp,gp,21792
  404cd4:	8f838074 	lw	v1,-32652(gp)
  404cd8:	8f828070 	lw	v0,-32656(gp)
  404cdc:	8c650000 	lw	a1,0(v1)
  404ce0:	3c030042 	lui	v1,0x42
  404ce4:	8c420000 	lw	v0,0(v0)
  404ce8:	9066d4f8 	lbu	a2,-11016(v1)
  404cec:	3c030042 	lui	v1,0x42
  404cf0:	27bdffd8 	addiu	sp,sp,-40
  404cf4:	9067d4f1 	lbu	a3,-11023(v1)
  404cf8:	afa40010 	sw	a0,16(sp)
  404cfc:	afbf0024 	sw	ra,36(sp)
  404d00:	afbc0018 	sw	gp,24(sp)
  404d04:	0c100f20 	jal	403c80 <tm1650_display_set>
  404d08:	00402021 	move	a0,v0
  404d0c:	28420000 	slti	v0,v0,0
  404d10:	8fbf0024 	lw	ra,36(sp)
  404d14:	24040001 	li	a0,1
  404d18:	2403ffff 	li	v1,-1
  404d1c:	0082180a 	movz	v1,a0,v0
  404d20:	00601021 	move	v0,v1
  404d24:	03e00008 	jr	ra
  404d28:	27bd0028 	addiu	sp,sp,40

00404d2c <led_network_connect_display>:
  404d2c:	3c1c0042 	lui	gp,0x42
  404d30:	279c5520 	addiu	gp,gp,21792
  404d34:	8f838074 	lw	v1,-32652(gp)
  404d38:	8f828070 	lw	v0,-32656(gp)
  404d3c:	8c650000 	lw	a1,0(v1)
  404d40:	3c030042 	lui	v1,0x42
  404d44:	8c420000 	lw	v0,0(v0)
  404d48:	9066d4f8 	lbu	a2,-11016(v1)
  404d4c:	3c030042 	lui	v1,0x42
  404d50:	27bdffd8 	addiu	sp,sp,-40
  404d54:	9067d4f2 	lbu	a3,-11022(v1)
  404d58:	afa40010 	sw	a0,16(sp)
  404d5c:	afbf0024 	sw	ra,36(sp)
  404d60:	afbc0018 	sw	gp,24(sp)
  404d64:	0c100f20 	jal	403c80 <tm1650_display_set>
  404d68:	00402021 	move	a0,v0
  404d6c:	28420000 	slti	v0,v0,0
  404d70:	8fbf0024 	lw	ra,36(sp)
  404d74:	24040001 	li	a0,1
  404d78:	2403ffff 	li	v1,-1
  404d7c:	0082180a 	movz	v1,a0,v0
  404d80:	00601021 	move	v0,v1
  404d84:	03e00008 	jr	ra
  404d88:	27bd0028 	addiu	sp,sp,40

00404d8c <led_system_error_display>:
  404d8c:	3c1c0042 	lui	gp,0x42
  404d90:	279c5520 	addiu	gp,gp,21792
  404d94:	8f838074 	lw	v1,-32652(gp)
  404d98:	8f828070 	lw	v0,-32656(gp)
  404d9c:	8c650000 	lw	a1,0(v1)
  404da0:	3c030042 	lui	v1,0x42
  404da4:	8c420000 	lw	v0,0(v0)
  404da8:	9066d4f8 	lbu	a2,-11016(v1)
  404dac:	3c030042 	lui	v1,0x42
  404db0:	27bdffd8 	addiu	sp,sp,-40
  404db4:	9067d4f3 	lbu	a3,-11021(v1)
  404db8:	afa40010 	sw	a0,16(sp)
  404dbc:	afbf0024 	sw	ra,36(sp)
  404dc0:	afbc0018 	sw	gp,24(sp)
  404dc4:	0c100f20 	jal	403c80 <tm1650_display_set>
  404dc8:	00402021 	move	a0,v0
  404dcc:	28420000 	slti	v0,v0,0
  404dd0:	8fbf0024 	lw	ra,36(sp)
  404dd4:	24040001 	li	a0,1
  404dd8:	2403ffff 	li	v1,-1
  404ddc:	0082180a 	movz	v1,a0,v0
  404de0:	00601021 	move	v0,v1
  404de4:	03e00008 	jr	ra
  404de8:	27bd0028 	addiu	sp,sp,40

00404dec <led_local_enable_display>:
  404dec:	3c1c0042 	lui	gp,0x42
  404df0:	279c5520 	addiu	gp,gp,21792
  404df4:	8f838074 	lw	v1,-32652(gp)
  404df8:	8f828070 	lw	v0,-32656(gp)
  404dfc:	8c650000 	lw	a1,0(v1)
  404e00:	3c030042 	lui	v1,0x42
  404e04:	8c420000 	lw	v0,0(v0)
  404e08:	9066d4f8 	lbu	a2,-11016(v1)
  404e0c:	3c030042 	lui	v1,0x42
  404e10:	27bdffd8 	addiu	sp,sp,-40
  404e14:	9067d4f4 	lbu	a3,-11020(v1)
  404e18:	afa40010 	sw	a0,16(sp)
  404e1c:	afbf0024 	sw	ra,36(sp)
  404e20:	afbc0018 	sw	gp,24(sp)
  404e24:	0c100f20 	jal	403c80 <tm1650_display_set>
  404e28:	00402021 	move	a0,v0
  404e2c:	28420000 	slti	v0,v0,0
  404e30:	8fbf0024 	lw	ra,36(sp)
  404e34:	24040001 	li	a0,1
  404e38:	2403ffff 	li	v1,-1
  404e3c:	0082180a 	movz	v1,a0,v0
  404e40:	00601021 	move	v0,v1
  404e44:	03e00008 	jr	ra
  404e48:	27bd0028 	addiu	sp,sp,40

00404e4c <led_slow_lane_select_display>:
  404e4c:	3c1c0042 	lui	gp,0x42
  404e50:	279c5520 	addiu	gp,gp,21792
  404e54:	8f838074 	lw	v1,-32652(gp)
  404e58:	8f828070 	lw	v0,-32656(gp)
  404e5c:	8c650000 	lw	a1,0(v1)
  404e60:	3c030042 	lui	v1,0x42
  404e64:	8c420000 	lw	v0,0(v0)
  404e68:	9066d4f8 	lbu	a2,-11016(v1)
  404e6c:	3c030042 	lui	v1,0x42
  404e70:	27bdffd8 	addiu	sp,sp,-40
  404e74:	9067d4f5 	lbu	a3,-11019(v1)
  404e78:	afa40010 	sw	a0,16(sp)
  404e7c:	afbf0024 	sw	ra,36(sp)
  404e80:	afbc0018 	sw	gp,24(sp)
  404e84:	0c100f20 	jal	403c80 <tm1650_display_set>
  404e88:	00402021 	move	a0,v0
  404e8c:	28420000 	slti	v0,v0,0
  404e90:	8fbf0024 	lw	ra,36(sp)
  404e94:	24040001 	li	a0,1
  404e98:	2403ffff 	li	v1,-1
  404e9c:	0082180a 	movz	v1,a0,v0
  404ea0:	00601021 	move	v0,v1
  404ea4:	03e00008 	jr	ra
  404ea8:	27bd0028 	addiu	sp,sp,40

00404eac <led_main_lane_select_display>:
  404eac:	3c1c0042 	lui	gp,0x42
  404eb0:	279c5520 	addiu	gp,gp,21792
  404eb4:	8f838074 	lw	v1,-32652(gp)
  404eb8:	8f828070 	lw	v0,-32656(gp)
  404ebc:	8c650000 	lw	a1,0(v1)
  404ec0:	3c030042 	lui	v1,0x42
  404ec4:	8c420000 	lw	v0,0(v0)
  404ec8:	9066d4f8 	lbu	a2,-11016(v1)
  404ecc:	3c030042 	lui	v1,0x42
  404ed0:	27bdffd8 	addiu	sp,sp,-40
  404ed4:	9067d4f6 	lbu	a3,-11018(v1)
  404ed8:	afa40010 	sw	a0,16(sp)
  404edc:	afbf0024 	sw	ra,36(sp)
  404ee0:	afbc0018 	sw	gp,24(sp)
  404ee4:	0c100f20 	jal	403c80 <tm1650_display_set>
  404ee8:	00402021 	move	a0,v0
  404eec:	28420000 	slti	v0,v0,0
  404ef0:	8fbf0024 	lw	ra,36(sp)
  404ef4:	24040001 	li	a0,1
  404ef8:	2403ffff 	li	v1,-1
  404efc:	0082180a 	movz	v1,a0,v0
  404f00:	00601021 	move	v0,v1
  404f04:	03e00008 	jr	ra
  404f08:	27bd0028 	addiu	sp,sp,40

00404f0c <led_over_lane_select_display>:
  404f0c:	3c1c0042 	lui	gp,0x42
  404f10:	279c5520 	addiu	gp,gp,21792
  404f14:	8f838074 	lw	v1,-32652(gp)
  404f18:	8f828070 	lw	v0,-32656(gp)
  404f1c:	8c650000 	lw	a1,0(v1)
  404f20:	3c030042 	lui	v1,0x42
  404f24:	8c420000 	lw	v0,0(v0)
  404f28:	9066d4f9 	lbu	a2,-11015(v1)
  404f2c:	3c030042 	lui	v1,0x42
  404f30:	27bdffd8 	addiu	sp,sp,-40
  404f34:	9067d4f0 	lbu	a3,-11024(v1)
  404f38:	afa40010 	sw	a0,16(sp)
  404f3c:	afbf0024 	sw	ra,36(sp)
  404f40:	afbc0018 	sw	gp,24(sp)
  404f44:	0c100f20 	jal	403c80 <tm1650_display_set>
  404f48:	00402021 	move	a0,v0
  404f4c:	28420000 	slti	v0,v0,0
  404f50:	8fbf0024 	lw	ra,36(sp)
  404f54:	24040001 	li	a0,1
  404f58:	2403ffff 	li	v1,-1
  404f5c:	0082180a 	movz	v1,a0,v0
  404f60:	00601021 	move	v0,v1
  404f64:	03e00008 	jr	ra
  404f68:	27bd0028 	addiu	sp,sp,40

00404f6c <led_control_state_select_display>:
  404f6c:	3c1c0042 	lui	gp,0x42
  404f70:	279c5520 	addiu	gp,gp,21792
  404f74:	8f838074 	lw	v1,-32652(gp)
  404f78:	8f828070 	lw	v0,-32656(gp)
  404f7c:	8c650000 	lw	a1,0(v1)
  404f80:	3c030042 	lui	v1,0x42
  404f84:	8c420000 	lw	v0,0(v0)
  404f88:	9066d4f9 	lbu	a2,-11015(v1)
  404f8c:	3c030042 	lui	v1,0x42
  404f90:	27bdffd8 	addiu	sp,sp,-40
  404f94:	9067d4f1 	lbu	a3,-11023(v1)
  404f98:	afa40010 	sw	a0,16(sp)
  404f9c:	afbf0024 	sw	ra,36(sp)
  404fa0:	afbc0018 	sw	gp,24(sp)
  404fa4:	0c100f20 	jal	403c80 <tm1650_display_set>
  404fa8:	00402021 	move	a0,v0
  404fac:	28420000 	slti	v0,v0,0
  404fb0:	8fbf0024 	lw	ra,36(sp)
  404fb4:	24040001 	li	a0,1
  404fb8:	2403ffff 	li	v1,-1
  404fbc:	0082180a 	movz	v1,a0,v0
  404fc0:	00601021 	move	v0,v1
  404fc4:	03e00008 	jr	ra
  404fc8:	27bd0028 	addiu	sp,sp,40

00404fcc <led_pass_and_front_go_display>:
  404fcc:	3c1c0042 	lui	gp,0x42
  404fd0:	279c5520 	addiu	gp,gp,21792
  404fd4:	8f838074 	lw	v1,-32652(gp)
  404fd8:	8f828070 	lw	v0,-32656(gp)
  404fdc:	8c650000 	lw	a1,0(v1)
  404fe0:	3c030042 	lui	v1,0x42
  404fe4:	8c420000 	lw	v0,0(v0)
  404fe8:	9066d4f9 	lbu	a2,-11015(v1)
  404fec:	3c030042 	lui	v1,0x42
  404ff0:	27bdffd8 	addiu	sp,sp,-40
  404ff4:	9067d4f2 	lbu	a3,-11022(v1)
  404ff8:	afa40010 	sw	a0,16(sp)
  404ffc:	afbf0024 	sw	ra,36(sp)
  405000:	afbc0018 	sw	gp,24(sp)
  405004:	0c100f20 	jal	403c80 <tm1650_display_set>
  405008:	00402021 	move	a0,v0
  40500c:	28420000 	slti	v0,v0,0
  405010:	8fbf0024 	lw	ra,36(sp)
  405014:	24040001 	li	a0,1
  405018:	2403ffff 	li	v1,-1
  40501c:	0082180a 	movz	v1,a0,v0
  405020:	00601021 	move	v0,v1
  405024:	03e00008 	jr	ra
  405028:	27bd0028 	addiu	sp,sp,40

0040502c <led_forbid_and_font_stop_display>:
  40502c:	3c1c0042 	lui	gp,0x42
  405030:	279c5520 	addiu	gp,gp,21792
  405034:	8f838074 	lw	v1,-32652(gp)
  405038:	8f828070 	lw	v0,-32656(gp)
  40503c:	8c650000 	lw	a1,0(v1)
  405040:	3c030042 	lui	v1,0x42
  405044:	8c420000 	lw	v0,0(v0)
  405048:	9066d4f9 	lbu	a2,-11015(v1)
  40504c:	3c030042 	lui	v1,0x42
  405050:	27bdffd8 	addiu	sp,sp,-40
  405054:	9067d4f3 	lbu	a3,-11021(v1)
  405058:	afa40010 	sw	a0,16(sp)
  40505c:	afbf0024 	sw	ra,36(sp)
  405060:	afbc0018 	sw	gp,24(sp)
  405064:	0c100f20 	jal	403c80 <tm1650_display_set>
  405068:	00402021 	move	a0,v0
  40506c:	28420000 	slti	v0,v0,0
  405070:	8fbf0024 	lw	ra,36(sp)
  405074:	24040001 	li	a0,1
  405078:	2403ffff 	li	v1,-1
  40507c:	0082180a 	movz	v1,a0,v0
  405080:	00601021 	move	v0,v1
  405084:	03e00008 	jr	ra
  405088:	27bd0028 	addiu	sp,sp,40

0040508c <led_reverse_and_font_turn_display>:
  40508c:	3c1c0042 	lui	gp,0x42
  405090:	279c5520 	addiu	gp,gp,21792
  405094:	8f838074 	lw	v1,-32652(gp)
  405098:	8f828070 	lw	v0,-32656(gp)
  40509c:	8c650000 	lw	a1,0(v1)
  4050a0:	3c030042 	lui	v1,0x42
  4050a4:	8c420000 	lw	v0,0(v0)
  4050a8:	9066d4f9 	lbu	a2,-11015(v1)
  4050ac:	3c030042 	lui	v1,0x42
  4050b0:	27bdffd8 	addiu	sp,sp,-40
  4050b4:	9067d4f4 	lbu	a3,-11020(v1)
  4050b8:	afa40010 	sw	a0,16(sp)
  4050bc:	afbf0024 	sw	ra,36(sp)
  4050c0:	afbc0018 	sw	gp,24(sp)
  4050c4:	0c100f20 	jal	403c80 <tm1650_display_set>
  4050c8:	00402021 	move	a0,v0
  4050cc:	28420000 	slti	v0,v0,0
  4050d0:	8fbf0024 	lw	ra,36(sp)
  4050d4:	24040001 	li	a0,1
  4050d8:	2403ffff 	li	v1,-1
  4050dc:	0082180a 	movz	v1,a0,v0
  4050e0:	00601021 	move	v0,v1
  4050e4:	03e00008 	jr	ra
  4050e8:	27bd0028 	addiu	sp,sp,40

004050ec <led_turn_front_and_back_go_display>:
  4050ec:	3c1c0042 	lui	gp,0x42
  4050f0:	279c5520 	addiu	gp,gp,21792
  4050f4:	8f838074 	lw	v1,-32652(gp)
  4050f8:	8f828070 	lw	v0,-32656(gp)
  4050fc:	8c650000 	lw	a1,0(v1)
  405100:	3c030042 	lui	v1,0x42
  405104:	8c420000 	lw	v0,0(v0)
  405108:	9066d4f9 	lbu	a2,-11015(v1)
  40510c:	3c030042 	lui	v1,0x42
  405110:	27bdffd8 	addiu	sp,sp,-40
  405114:	9067d4f5 	lbu	a3,-11019(v1)
  405118:	afa40010 	sw	a0,16(sp)
  40511c:	afbf0024 	sw	ra,36(sp)
  405120:	afbc0018 	sw	gp,24(sp)
  405124:	0c100f20 	jal	403c80 <tm1650_display_set>
  405128:	00402021 	move	a0,v0
  40512c:	28420000 	slti	v0,v0,0
  405130:	8fbf0024 	lw	ra,36(sp)
  405134:	24040001 	li	a0,1
  405138:	2403ffff 	li	v1,-1
  40513c:	0082180a 	movz	v1,a0,v0
  405140:	00601021 	move	v0,v1
  405144:	03e00008 	jr	ra
  405148:	27bd0028 	addiu	sp,sp,40

0040514c <led_turn_back_and_back_stop_display>:
  40514c:	3c1c0042 	lui	gp,0x42
  405150:	279c5520 	addiu	gp,gp,21792
  405154:	8f838074 	lw	v1,-32652(gp)
  405158:	8f828070 	lw	v0,-32656(gp)
  40515c:	8c650000 	lw	a1,0(v1)
  405160:	3c030042 	lui	v1,0x42
  405164:	8c420000 	lw	v0,0(v0)
  405168:	9066d4f9 	lbu	a2,-11015(v1)
  40516c:	3c030042 	lui	v1,0x42
  405170:	27bdffd8 	addiu	sp,sp,-40
  405174:	9067d4f6 	lbu	a3,-11018(v1)
  405178:	afa40010 	sw	a0,16(sp)
  40517c:	afbf0024 	sw	ra,36(sp)
  405180:	afbc0018 	sw	gp,24(sp)
  405184:	0c100f20 	jal	403c80 <tm1650_display_set>
  405188:	00402021 	move	a0,v0
  40518c:	28420000 	slti	v0,v0,0
  405190:	8fbf0024 	lw	ra,36(sp)
  405194:	24040001 	li	a0,1
  405198:	2403ffff 	li	v1,-1
  40519c:	0082180a 	movz	v1,a0,v0
  4051a0:	00601021 	move	v0,v1
  4051a4:	03e00008 	jr	ra
  4051a8:	27bd0028 	addiu	sp,sp,40

004051ac <led_uart_tx_and_back_turn_display>:
  4051ac:	3c1c0042 	lui	gp,0x42
  4051b0:	279c5520 	addiu	gp,gp,21792
  4051b4:	8f838074 	lw	v1,-32652(gp)
  4051b8:	8f828070 	lw	v0,-32656(gp)
  4051bc:	8c650000 	lw	a1,0(v1)
  4051c0:	3c030042 	lui	v1,0x42
  4051c4:	8c420000 	lw	v0,0(v0)
  4051c8:	9066d4fa 	lbu	a2,-11014(v1)
  4051cc:	3c030042 	lui	v1,0x42
  4051d0:	27bdffd8 	addiu	sp,sp,-40
  4051d4:	9067d4f0 	lbu	a3,-11024(v1)
  4051d8:	afa40010 	sw	a0,16(sp)
  4051dc:	afbf0024 	sw	ra,36(sp)
  4051e0:	afbc0018 	sw	gp,24(sp)
  4051e4:	0c100f20 	jal	403c80 <tm1650_display_set>
  4051e8:	00402021 	move	a0,v0
  4051ec:	28420000 	slti	v0,v0,0
  4051f0:	8fbf0024 	lw	ra,36(sp)
  4051f4:	24040001 	li	a0,1
  4051f8:	2403ffff 	li	v1,-1
  4051fc:	0082180a 	movz	v1,a0,v0
  405200:	00601021 	move	v0,v1
  405204:	03e00008 	jr	ra
  405208:	27bd0028 	addiu	sp,sp,40

0040520c <led_uart_rx_display>:
  40520c:	3c1c0042 	lui	gp,0x42
  405210:	279c5520 	addiu	gp,gp,21792
  405214:	8f838074 	lw	v1,-32652(gp)
  405218:	8f828070 	lw	v0,-32656(gp)
  40521c:	8c650000 	lw	a1,0(v1)
  405220:	3c030042 	lui	v1,0x42
  405224:	8c420000 	lw	v0,0(v0)
  405228:	9066d4fa 	lbu	a2,-11014(v1)
  40522c:	3c030042 	lui	v1,0x42
  405230:	27bdffd8 	addiu	sp,sp,-40
  405234:	9067d4f1 	lbu	a3,-11023(v1)
  405238:	afa40010 	sw	a0,16(sp)
  40523c:	afbf0024 	sw	ra,36(sp)
  405240:	afbc0018 	sw	gp,24(sp)
  405244:	0c100f20 	jal	403c80 <tm1650_display_set>
  405248:	00402021 	move	a0,v0
  40524c:	28420000 	slti	v0,v0,0
  405250:	8fbf0024 	lw	ra,36(sp)
  405254:	24040001 	li	a0,1
  405258:	2403ffff 	li	v1,-1
  40525c:	0082180a 	movz	v1,a0,v0
  405260:	00601021 	move	v0,v1
  405264:	03e00008 	jr	ra
  405268:	27bd0028 	addiu	sp,sp,40

0040526c <tm1650_init>:
  40526c:	3c1c0042 	lui	gp,0x42
  405270:	279c5520 	addiu	gp,gp,21792
  405274:	27bdffc0 	addiu	sp,sp,-64
  405278:	8f9981a4 	lw	t9,-32348(gp)
  40527c:	3c040041 	lui	a0,0x41
  405280:	2484bd84 	addiu	a0,a0,-17020
  405284:	afb10028 	sw	s1,40(sp)
  405288:	afbc0018 	sw	gp,24(sp)
  40528c:	afbf003c 	sw	ra,60(sp)
  405290:	afb50038 	sw	s5,56(sp)
  405294:	afb40034 	sw	s4,52(sp)
  405298:	afb30030 	sw	s3,48(sp)
  40529c:	afb2002c 	sw	s2,44(sp)
  4052a0:	afb00024 	sw	s0,36(sp)
  4052a4:	0320f809 	jalr	t9
  4052a8:	24050002 	li	a1,2
  4052ac:	00408821 	move	s1,v0
  4052b0:	044000b0 	bltz	v0,405574 <tm1650_init+0x308>
  4052b4:	8fbc0018 	lw	gp,24(sp)
  4052b8:	8f908070 	lw	s0,-32656(gp)
  4052bc:	8f9981d0 	lw	t9,-32304(gp)
  4052c0:	00402021 	move	a0,v0
  4052c4:	24050702 	li	a1,1794
  4052c8:	24060001 	li	a2,1
  4052cc:	0320f809 	jalr	t9
  4052d0:	ae020000 	sw	v0,0(s0)
  4052d4:	0440008b 	bltz	v0,405504 <tm1650_init+0x298>
  4052d8:	8fbc0018 	lw	gp,24(sp)
  4052dc:	8f9981d0 	lw	t9,-32304(gp)
  4052e0:	02202021 	move	a0,s1
  4052e4:	24050701 	li	a1,1793
  4052e8:	0320f809 	jalr	t9
  4052ec:	24060002 	li	a2,2
  4052f0:	0440008f 	bltz	v0,405530 <tm1650_init+0x2c4>
  4052f4:	8fbc0018 	lw	gp,24(sp)
  4052f8:	8f9981d0 	lw	t9,-32304(gp)
  4052fc:	02202021 	move	a0,s1
  405300:	24050704 	li	a1,1796
  405304:	0320f809 	jalr	t9
  405308:	00003021 	move	a2,zero
  40530c:	044000a7 	bltz	v0,4055ac <tm1650_init+0x340>
  405310:	8fbc0018 	lw	gp,24(sp)
  405314:	8f9981b8 	lw	t9,-32328(gp)
  405318:	0320f809 	jalr	t9
  40531c:	24040008 	li	a0,8
  405320:	8fbc0018 	lw	gp,24(sp)
  405324:	00409021 	move	s2,v0
  405328:	8c420004 	lw	v0,4(v0)
  40532c:	8f918074 	lw	s1,-32652(gp)
  405330:	00022080 	sll	a0,v0,0x2
  405334:	8f9981b8 	lw	t9,-32328(gp)
  405338:	00021100 	sll	v0,v0,0x4
  40533c:	00442023 	subu	a0,v0,a0
  405340:	0320f809 	jalr	t9
  405344:	ae320000 	sw	s2,0(s1)
  405348:	8fbc0018 	lw	gp,24(sp)
  40534c:	24140001 	li	s4,1
  405350:	00409821 	move	s3,v0
  405354:	ae420000 	sw	v0,0(s2)
  405358:	8f9981b8 	lw	t9,-32328(gp)
  40535c:	a4540004 	sh	s4,4(v0)
  405360:	24020024 	li	v0,36
  405364:	24040001 	li	a0,1
  405368:	ae540004 	sw	s4,4(s2)
  40536c:	a6620000 	sh	v0,0(s3)
  405370:	a6600002 	sh	zero,2(s3)
  405374:	0320f809 	jalr	t9
  405378:	8e150000 	lw	s5,0(s0)
  40537c:	8fbc0018 	lw	gp,24(sp)
  405380:	24030009 	li	v1,9
  405384:	8f9981d0 	lw	t9,-32304(gp)
  405388:	ae620008 	sw	v0,8(s3)
  40538c:	a0430000 	sb	v1,0(v0)
  405390:	02a02021 	move	a0,s5
  405394:	24050707 	li	a1,1799
  405398:	0320f809 	jalr	t9
  40539c:	02403021 	move	a2,s2
  4053a0:	04400069 	bltz	v0,405548 <tm1650_init+0x2dc>
  4053a4:	8fbc0018 	lw	gp,24(sp)
  4053a8:	8f9981b4 	lw	t9,-32332(gp)
  4053ac:	3c040041 	lui	a0,0x41
  4053b0:	0320f809 	jalr	t9
  4053b4:	2484be44 	addiu	a0,a0,-16828
  4053b8:	8fbc0018 	lw	gp,24(sp)
  4053bc:	8e420000 	lw	v0,0(s2)
  4053c0:	8f9981ec 	lw	t9,-32276(gp)
  4053c4:	8c440008 	lw	a0,8(v0)
  4053c8:	0320f809 	jalr	t9
  4053cc:	3c120042 	lui	s2,0x42
  4053d0:	8e040000 	lw	a0,0(s0)
  4053d4:	8e250000 	lw	a1,0(s1)
  4053d8:	9246d4f8 	lbu	a2,-11016(s2)
  4053dc:	afa00010 	sw	zero,16(sp)
  4053e0:	0c100f20 	jal	403c80 <tm1650_display_set>
  4053e4:	00003821 	move	a3,zero
  4053e8:	04400038 	bltz	v0,4054cc <tm1650_init+0x260>
  4053ec:	8fbc0018 	lw	gp,24(sp)
  4053f0:	2653d4f8 	addiu	s3,s2,-11016
  4053f4:	8e040000 	lw	a0,0(s0)
  4053f8:	8e250000 	lw	a1,0(s1)
  4053fc:	92660001 	lbu	a2,1(s3)
  405400:	00003821 	move	a3,zero
  405404:	0c100f20 	jal	403c80 <tm1650_display_set>
  405408:	afa00010 	sw	zero,16(sp)
  40540c:	0440002f 	bltz	v0,4054cc <tm1650_init+0x260>
  405410:	8fbc0018 	lw	gp,24(sp)
  405414:	8e040000 	lw	a0,0(s0)
  405418:	8e250000 	lw	a1,0(s1)
  40541c:	92660002 	lbu	a2,2(s3)
  405420:	00003821 	move	a3,zero
  405424:	0c100f20 	jal	403c80 <tm1650_display_set>
  405428:	afa00010 	sw	zero,16(sp)
  40542c:	04400027 	bltz	v0,4054cc <tm1650_init+0x260>
  405430:	8fbc0018 	lw	gp,24(sp)
  405434:	8e040000 	lw	a0,0(s0)
  405438:	8e250000 	lw	a1,0(s1)
  40543c:	92660003 	lbu	a2,3(s3)
  405440:	00003821 	move	a3,zero
  405444:	0c100f20 	jal	403c80 <tm1650_display_set>
  405448:	afa00010 	sw	zero,16(sp)
  40544c:	0440001f 	bltz	v0,4054cc <tm1650_init+0x260>
  405450:	8fbc0018 	lw	gp,24(sp)
  405454:	3c130042 	lui	s3,0x42
  405458:	8e040000 	lw	a0,0(s0)
  40545c:	8e250000 	lw	a1,0(s1)
  405460:	9267d4f0 	lbu	a3,-11024(s3)
  405464:	9246d4f8 	lbu	a2,-11016(s2)
  405468:	2673d4f0 	addiu	s3,s3,-11024
  40546c:	0c100f20 	jal	403c80 <tm1650_display_set>
  405470:	afb40010 	sw	s4,16(sp)
  405474:	8e040000 	lw	a0,0(s0)
  405478:	8e250000 	lw	a1,0(s1)
  40547c:	92670001 	lbu	a3,1(s3)
  405480:	9246d4f8 	lbu	a2,-11016(s2)
  405484:	0c100f20 	jal	403c80 <tm1650_display_set>
  405488:	afb40010 	sw	s4,16(sp)
  40548c:	8e040000 	lw	a0,0(s0)
  405490:	8e250000 	lw	a1,0(s1)
  405494:	92670005 	lbu	a3,5(s3)
  405498:	9246d4f8 	lbu	a2,-11016(s2)
  40549c:	0c100f20 	jal	403c80 <tm1650_display_set>
  4054a0:	afb40010 	sw	s4,16(sp)
  4054a4:	24020001 	li	v0,1
  4054a8:	8fbf003c 	lw	ra,60(sp)
  4054ac:	8fb50038 	lw	s5,56(sp)
  4054b0:	8fb40034 	lw	s4,52(sp)
  4054b4:	8fb30030 	lw	s3,48(sp)
  4054b8:	8fb2002c 	lw	s2,44(sp)
  4054bc:	8fb10028 	lw	s1,40(sp)
  4054c0:	8fb00024 	lw	s0,36(sp)
  4054c4:	03e00008 	jr	ra
  4054c8:	27bd0040 	addiu	sp,sp,64
  4054cc:	8f9981b4 	lw	t9,-32332(gp)
  4054d0:	3c040041 	lui	a0,0x41
  4054d4:	0320f809 	jalr	t9
  4054d8:	2484be54 	addiu	a0,a0,-16812
  4054dc:	8fbf003c 	lw	ra,60(sp)
  4054e0:	8fb50038 	lw	s5,56(sp)
  4054e4:	8fb40034 	lw	s4,52(sp)
  4054e8:	8fb30030 	lw	s3,48(sp)
  4054ec:	8fb2002c 	lw	s2,44(sp)
  4054f0:	8fb10028 	lw	s1,40(sp)
  4054f4:	8fb00024 	lw	s0,36(sp)
  4054f8:	2402ffff 	li	v0,-1
  4054fc:	03e00008 	jr	ra
  405500:	27bd0040 	addiu	sp,sp,64
  405504:	8f9981cc 	lw	t9,-32308(gp)
  405508:	3c040041 	lui	a0,0x41
  40550c:	0320f809 	jalr	t9
  405510:	2484bdc4 	addiu	a0,a0,-16956
  405514:	8fbc0018 	lw	gp,24(sp)
  405518:	8f9981b4 	lw	t9,-32332(gp)
  40551c:	3c040041 	lui	a0,0x41
  405520:	0320f809 	jalr	t9
  405524:	2484be80 	addiu	a0,a0,-16768
  405528:	0810152a 	j	4054a8 <tm1650_init+0x23c>
  40552c:	2402ffff 	li	v0,-1
  405530:	8f9981cc 	lw	t9,-32308(gp)
  405534:	3c040041 	lui	a0,0x41
  405538:	0320f809 	jalr	t9
  40553c:	2484bde0 	addiu	a0,a0,-16928
  405540:	08101546 	j	405518 <tm1650_init+0x2ac>
  405544:	8fbc0018 	lw	gp,24(sp)
  405548:	8f9981cc 	lw	t9,-32308(gp)
  40554c:	3c040041 	lui	a0,0x41
  405550:	0320f809 	jalr	t9
  405554:	2484bd30 	addiu	a0,a0,-17104
  405558:	8fbc0018 	lw	gp,24(sp)
  40555c:	3c040041 	lui	a0,0x41
  405560:	8f9981b4 	lw	t9,-32332(gp)
  405564:	0320f809 	jalr	t9
  405568:	2484be14 	addiu	a0,a0,-16876
  40556c:	0810152a 	j	4054a8 <tm1650_init+0x23c>
  405570:	2402ffff 	li	v0,-1
  405574:	8f9981cc 	lw	t9,-32308(gp)
  405578:	3c040041 	lui	a0,0x41
  40557c:	0320f809 	jalr	t9
  405580:	2484bd90 	addiu	a0,a0,-17008
  405584:	8fbc0018 	lw	gp,24(sp)
  405588:	2403ffff 	li	v1,-1
  40558c:	8f828070 	lw	v0,-32656(gp)
  405590:	8f9981b4 	lw	t9,-32332(gp)
  405594:	3c040041 	lui	a0,0x41
  405598:	2484bd9c 	addiu	a0,a0,-16996
  40559c:	0320f809 	jalr	t9
  4055a0:	ac430000 	sw	v1,0(v0)
  4055a4:	0810152a 	j	4054a8 <tm1650_init+0x23c>
  4055a8:	2402ffff 	li	v0,-1
  4055ac:	8f9981cc 	lw	t9,-32308(gp)
  4055b0:	3c040041 	lui	a0,0x41
  4055b4:	0320f809 	jalr	t9
  4055b8:	2484bdf8 	addiu	a0,a0,-16904
  4055bc:	08101546 	j	405518 <tm1650_init+0x2ac>
  4055c0:	8fbc0018 	lw	gp,24(sp)

004055c4 <led_and_button_init>:
  4055c4:	3c1c0042 	lui	gp,0x42
  4055c8:	27bdffe0 	addiu	sp,sp,-32
  4055cc:	279c5520 	addiu	gp,gp,21792
  4055d0:	afbc0010 	sw	gp,16(sp)
  4055d4:	afbf001c 	sw	ra,28(sp)
  4055d8:	0c10149b 	jal	40526c <tm1650_init>
  4055dc:	00000000 	nop
  4055e0:	0440000c 	bltz	v0,405614 <led_and_button_init+0x50>
  4055e4:	8fbc0010 	lw	gp,16(sp)
  4055e8:	8f998188 	lw	t9,-32376(gp)
  4055ec:	8f848078 	lw	a0,-32648(gp)
  4055f0:	00002821 	move	a1,zero
  4055f4:	0320f809 	jalr	t9
  4055f8:	24060001 	li	a2,1
  4055fc:	04400002 	bltz	v0,405608 <led_and_button_init+0x44>
  405600:	2402ffff 	li	v0,-1
  405604:	24020001 	li	v0,1
  405608:	8fbf001c 	lw	ra,28(sp)
  40560c:	03e00008 	jr	ra
  405610:	27bd0020 	addiu	sp,sp,32
  405614:	08101582 	j	405608 <led_and_button_init+0x44>
  405618:	2402ffff 	li	v0,-1

0040561c <button_press_check>:
  40561c:	3c1c0042 	lui	gp,0x42
  405620:	279c5520 	addiu	gp,gp,21792
  405624:	8f82807c 	lw	v0,-32644(gp)
  405628:	27bdffc0 	addiu	sp,sp,-64
  40562c:	8f838080 	lw	v1,-32640(gp)
  405630:	afbe0038 	sw	s8,56(sp)
  405634:	afb60030 	sw	s6,48(sp)
  405638:	afb5002c 	sw	s5,44(sp)
  40563c:	afb40028 	sw	s4,40(sp)
  405640:	afb30024 	sw	s3,36(sp)
  405644:	afb20020 	sw	s2,32(sp)
  405648:	afb1001c 	sw	s1,28(sp)
  40564c:	afb00018 	sw	s0,24(sp)
  405650:	afbf003c 	sw	ra,60(sp)
  405654:	afb70034 	sw	s7,52(sp)
  405658:	afbc0010 	sw	gp,16(sp)
  40565c:	8f948084 	lw	s4,-32636(gp)
  405660:	8f968088 	lw	s6,-32632(gp)
  405664:	8f9e808c 	lw	s8,-32628(gp)
  405668:	8f958090 	lw	s5,-32624(gp)
  40566c:	ac400000 	sw	zero,0(v0)
  405670:	ac400004 	sw	zero,4(v0)
  405674:	ac400008 	sw	zero,8(v0)
  405678:	ac40000c 	sw	zero,12(v0)
  40567c:	8f828094 	lw	v0,-32620(gp)
  405680:	3c130041 	lui	s3,0x41
  405684:	3c120006 	lui	s2,0x6
  405688:	8f908074 	lw	s0,-32652(gp)
  40568c:	afc00000 	sw	zero,0(s8)
  405690:	afc00004 	sw	zero,4(s8)
  405694:	afc00008 	sw	zero,8(s8)
  405698:	afc0000c 	sw	zero,12(s8)
  40569c:	ae800000 	sw	zero,0(s4)
  4056a0:	ae800004 	sw	zero,4(s4)
  4056a4:	ae800008 	sw	zero,8(s4)
  4056a8:	ae80000c 	sw	zero,12(s4)
  4056ac:	aec00000 	sw	zero,0(s6)
  4056b0:	aec00004 	sw	zero,4(s6)
  4056b4:	aec00008 	sw	zero,8(s6)
  4056b8:	aec0000c 	sw	zero,12(s6)
  4056bc:	ac600000 	sw	zero,0(v1)
  4056c0:	ac600004 	sw	zero,4(v1)
  4056c4:	ac600008 	sw	zero,8(v1)
  4056c8:	ac60000c 	sw	zero,12(v1)
  4056cc:	ac400000 	sw	zero,0(v0)
  4056d0:	2673c108 	addiu	s3,s3,-16120
  4056d4:	ac400004 	sw	zero,4(v0)
  4056d8:	26521a80 	addiu	s2,s2,6784
  4056dc:	ac400008 	sw	zero,8(v0)
  4056e0:	ac40000c 	sw	zero,12(v0)
  4056e4:	aea00000 	sw	zero,0(s5)
  4056e8:	aea00004 	sw	zero,4(s5)
  4056ec:	aea00008 	sw	zero,8(s5)
  4056f0:	aea0000c 	sw	zero,12(s5)
  4056f4:	24110077 	li	s1,119
  4056f8:	8f9981c4 	lw	t9,-32316(gp)
  4056fc:	0320f809 	jalr	t9
  405700:	02402021 	move	a0,s2
  405704:	0c101053 	jal	40414c <tm1650_key_get.constprop.0>
  405708:	8e040000 	lw	a0,0(s0)
  40570c:	2442ffb9 	addiu	v0,v0,-71
  405710:	2c430031 	sltiu	v1,v0,49
  405714:	1060fff8 	beqz	v1,4056f8 <button_press_check+0xdc>
  405718:	8fbc0010 	lw	gp,16(sp)
  40571c:	00021080 	sll	v0,v0,0x2
  405720:	02621021 	addu	v0,s3,v0
  405724:	8c420000 	lw	v0,0(v0)
  405728:	00400008 	jr	v0
  40572c:	00000000 	nop
  405730:	081015cf 	j	40573c <button_press_check+0x120>
  405734:	0000b821 	move	s7,zero
  405738:	26f70001 	addiu	s7,s7,1
  40573c:	0c101053 	jal	40414c <tm1650_key_get.constprop.0>
  405740:	8e040000 	lw	a0,0(s0)
  405744:	1051fffc 	beq	v0,s1,405738 <button_press_check+0x11c>
  405748:	8fbc0010 	lw	gp,16(sp)
  40574c:	2ee30065 	sltiu	v1,s7,101
  405750:	1060006c 	beqz	v1,405904 <button_press_check+0x2e8>
  405754:	8f9981b4 	lw	t9,-32332(gp)
  405758:	3c020041 	lui	v0,0x41
  40575c:	2444bf5c 	addiu	a0,v0,-16548
  405760:	24020001 	li	v0,1
  405764:	a2a2000e 	sb	v0,14(s5)
  405768:	aea00004 	sw	zero,4(s5)
  40576c:	24030077 	li	v1,119
  405770:	aea30000 	sw	v1,0(s5)
  405774:	0320f809 	jalr	t9
  405778:	00000000 	nop
  40577c:	8fbc0010 	lw	gp,16(sp)
  405780:	8f848078 	lw	a0,-32648(gp)
  405784:	8f998204 	lw	t9,-32252(gp)
  405788:	0320f809 	jalr	t9
  40578c:	00000000 	nop
  405790:	081015be 	j	4056f8 <button_press_check+0xdc>
  405794:	8fbc0010 	lw	gp,16(sp)
  405798:	8f838094 	lw	v1,-32620(gp)
  40579c:	24020001 	li	v0,1
  4057a0:	8f998204 	lw	t9,-32252(gp)
  4057a4:	8f848078 	lw	a0,-32648(gp)
  4057a8:	a062000d 	sb	v0,13(v1)
  4057ac:	2402006f 	li	v0,111
  4057b0:	0320f809 	jalr	t9
  4057b4:	ac620000 	sw	v0,0(v1)
  4057b8:	081015be 	j	4056f8 <button_press_check+0xdc>
  4057bc:	8fbc0010 	lw	gp,16(sp)
  4057c0:	8f838080 	lw	v1,-32640(gp)
  4057c4:	24020001 	li	v0,1
  4057c8:	8f998204 	lw	t9,-32252(gp)
  4057cc:	8f848078 	lw	a0,-32648(gp)
  4057d0:	a062000c 	sb	v0,12(v1)
  4057d4:	24020067 	li	v0,103
  4057d8:	0320f809 	jalr	t9
  4057dc:	ac620000 	sw	v0,0(v1)
  4057e0:	081015be 	j	4056f8 <button_press_check+0xdc>
  4057e4:	8fbc0010 	lw	gp,16(sp)
  4057e8:	8f83807c 	lw	v1,-32644(gp)
  4057ec:	24020001 	li	v0,1
  4057f0:	8f998204 	lw	t9,-32252(gp)
  4057f4:	8f848078 	lw	a0,-32648(gp)
  4057f8:	a062000b 	sb	v0,11(v1)
  4057fc:	2402005f 	li	v0,95
  405800:	0320f809 	jalr	t9
  405804:	ac620000 	sw	v0,0(v1)
  405808:	081015be 	j	4056f8 <button_press_check+0xdc>
  40580c:	8fbc0010 	lw	gp,16(sp)
  405810:	92c2000a 	lbu	v0,10(s6)
  405814:	24420001 	addiu	v0,v0,1
  405818:	304200ff 	andi	v0,v0,0xff
  40581c:	2c430002 	sltiu	v1,v0,2
  405820:	1460003f 	bnez	v1,405920 <button_press_check+0x304>
  405824:	8f838088 	lw	v1,-32632(gp)
  405828:	8f828088 	lw	v0,-32632(gp)
  40582c:	a040000a 	sb	zero,10(v0)
  405830:	3c030041 	lui	v1,0x41
  405834:	24020057 	li	v0,87
  405838:	8f9981b4 	lw	t9,-32332(gp)
  40583c:	2464bf18 	addiu	a0,v1,-16616
  405840:	081015dd 	j	405774 <button_press_check+0x158>
  405844:	aec20000 	sw	v0,0(s6)
  405848:	8f9981b4 	lw	t9,-32332(gp)
  40584c:	3c020041 	lui	v0,0x41
  405850:	0320f809 	jalr	t9
  405854:	2444bebc 	addiu	a0,v0,-16708
  405858:	92820009 	lbu	v0,9(s4)
  40585c:	24420001 	addiu	v0,v0,1
  405860:	304200ff 	andi	v0,v0,0xff
  405864:	2c430003 	sltiu	v1,v0,3
  405868:	10600023 	beqz	v1,4058f8 <button_press_check+0x2dc>
  40586c:	8fbc0010 	lw	gp,16(sp)
  405870:	8f838084 	lw	v1,-32636(gp)
  405874:	a0620009 	sb	v0,9(v1)
  405878:	8f998204 	lw	t9,-32252(gp)
  40587c:	8f848078 	lw	a0,-32648(gp)
  405880:	2402004f 	li	v0,79
  405884:	0320f809 	jalr	t9
  405888:	ae820000 	sw	v0,0(s4)
  40588c:	8fbc0010 	lw	gp,16(sp)
  405890:	3c030041 	lui	v1,0x41
  405894:	8f9981f8 	lw	t9,-32264(gp)
  405898:	92850009 	lbu	a1,9(s4)
  40589c:	0320f809 	jalr	t9
  4058a0:	2464bee8 	addiu	a0,v1,-16664
  4058a4:	081015be 	j	4056f8 <button_press_check+0xdc>
  4058a8:	8fbc0010 	lw	gp,16(sp)
  4058ac:	93c20008 	lbu	v0,8(s8)
  4058b0:	24420001 	addiu	v0,v0,1
  4058b4:	304200ff 	andi	v0,v0,0xff
  4058b8:	2c430002 	sltiu	v1,v0,2
  4058bc:	1460001a 	bnez	v1,405928 <button_press_check+0x30c>
  4058c0:	8f84808c 	lw	a0,-32628(gp)
  4058c4:	a0800008 	sb	zero,8(a0)
  4058c8:	8f998204 	lw	t9,-32252(gp)
  4058cc:	8f848078 	lw	a0,-32648(gp)
  4058d0:	24020047 	li	v0,71
  4058d4:	0320f809 	jalr	t9
  4058d8:	afc20000 	sw	v0,0(s8)
  4058dc:	8fbc0010 	lw	gp,16(sp)
  4058e0:	3c030041 	lui	v1,0x41
  4058e4:	8f9981b4 	lw	t9,-32332(gp)
  4058e8:	0320f809 	jalr	t9
  4058ec:	2464beac 	addiu	a0,v1,-16724
  4058f0:	081015be 	j	4056f8 <button_press_check+0xdc>
  4058f4:	8fbc0010 	lw	gp,16(sp)
  4058f8:	8f828084 	lw	v0,-32636(gp)
  4058fc:	0810161e 	j	405878 <button_press_check+0x25c>
  405900:	a0400009 	sb	zero,9(v0)
  405904:	3c020041 	lui	v0,0x41
  405908:	2444bf44 	addiu	a0,v0,-16572
  40590c:	24020001 	li	v0,1
  405910:	a2a2000f 	sb	v0,15(s5)
  405914:	24020001 	li	v0,1
  405918:	081015db 	j	40576c <button_press_check+0x150>
  40591c:	aea20004 	sw	v0,4(s5)
  405920:	0810160c 	j	405830 <button_press_check+0x214>
  405924:	a062000a 	sb	v0,10(v1)
  405928:	08101632 	j	4058c8 <button_press_check+0x2ac>
  40592c:	a0820008 	sb	v0,8(a0)

00405930 <input_gpio_export>:
  405930:	3c1c0042 	lui	gp,0x42
  405934:	279c5520 	addiu	gp,gp,21792
  405938:	27bdffe0 	addiu	sp,sp,-32
  40593c:	8f9981a4 	lw	t9,-32348(gp)
  405940:	3c040041 	lui	a0,0x41
  405944:	2484c1d0 	addiu	a0,a0,-15920
  405948:	afb00018 	sw	s0,24(sp)
  40594c:	afbc0010 	sw	gp,16(sp)
  405950:	afbf001c 	sw	ra,28(sp)
  405954:	0320f809 	jalr	t9
  405958:	24050001 	li	a1,1
  40595c:	00408021 	move	s0,v0
  405960:	2402ffff 	li	v0,-1
  405964:	120200cd 	beq	s0,v0,405c9c <input_gpio_export+0x36c>
  405968:	8fbc0010 	lw	gp,16(sp)
  40596c:	8f998190 	lw	t9,-32368(gp)
  405970:	3c050041 	lui	a1,0x41
  405974:	02002021 	move	a0,s0
  405978:	24a5c208 	addiu	a1,a1,-15864
  40597c:	0320f809 	jalr	t9
  405980:	24060004 	li	a2,4
  405984:	8fbc0010 	lw	gp,16(sp)
  405988:	3c050041 	lui	a1,0x41
  40598c:	8f998190 	lw	t9,-32368(gp)
  405990:	02002021 	move	a0,s0
  405994:	24a5c20c 	addiu	a1,a1,-15860
  405998:	0320f809 	jalr	t9
  40599c:	24060004 	li	a2,4
  4059a0:	8fbc0010 	lw	gp,16(sp)
  4059a4:	3c050041 	lui	a1,0x41
  4059a8:	8f998190 	lw	t9,-32368(gp)
  4059ac:	02002021 	move	a0,s0
  4059b0:	24a5c210 	addiu	a1,a1,-15856
  4059b4:	0320f809 	jalr	t9
  4059b8:	24060004 	li	a2,4
  4059bc:	8fbc0010 	lw	gp,16(sp)
  4059c0:	3c050041 	lui	a1,0x41
  4059c4:	8f998190 	lw	t9,-32368(gp)
  4059c8:	02002021 	move	a0,s0
  4059cc:	24a5c214 	addiu	a1,a1,-15852
  4059d0:	0320f809 	jalr	t9
  4059d4:	24060004 	li	a2,4
  4059d8:	8fbc0010 	lw	gp,16(sp)
  4059dc:	3c050041 	lui	a1,0x41
  4059e0:	8f998190 	lw	t9,-32368(gp)
  4059e4:	02002021 	move	a0,s0
  4059e8:	24a5c218 	addiu	a1,a1,-15848
  4059ec:	0320f809 	jalr	t9
  4059f0:	24060004 	li	a2,4
  4059f4:	8fbc0010 	lw	gp,16(sp)
  4059f8:	3c050041 	lui	a1,0x41
  4059fc:	8f998190 	lw	t9,-32368(gp)
  405a00:	02002021 	move	a0,s0
  405a04:	24a5c21c 	addiu	a1,a1,-15844
  405a08:	0320f809 	jalr	t9
  405a0c:	24060004 	li	a2,4
  405a10:	8fbc0010 	lw	gp,16(sp)
  405a14:	3c050041 	lui	a1,0x41
  405a18:	8f998190 	lw	t9,-32368(gp)
  405a1c:	02002021 	move	a0,s0
  405a20:	24a5c220 	addiu	a1,a1,-15840
  405a24:	0320f809 	jalr	t9
  405a28:	24060004 	li	a2,4
  405a2c:	8fbc0010 	lw	gp,16(sp)
  405a30:	3c050041 	lui	a1,0x41
  405a34:	8f998190 	lw	t9,-32368(gp)
  405a38:	02002021 	move	a0,s0
  405a3c:	24a5c224 	addiu	a1,a1,-15836
  405a40:	0320f809 	jalr	t9
  405a44:	24060004 	li	a2,4
  405a48:	8fbc0010 	lw	gp,16(sp)
  405a4c:	3c050041 	lui	a1,0x41
  405a50:	8f998190 	lw	t9,-32368(gp)
  405a54:	02002021 	move	a0,s0
  405a58:	24a5c228 	addiu	a1,a1,-15832
  405a5c:	0320f809 	jalr	t9
  405a60:	24060004 	li	a2,4
  405a64:	8fbc0010 	lw	gp,16(sp)
  405a68:	3c050041 	lui	a1,0x41
  405a6c:	8f998190 	lw	t9,-32368(gp)
  405a70:	02002021 	move	a0,s0
  405a74:	24a5c22c 	addiu	a1,a1,-15828
  405a78:	0320f809 	jalr	t9
  405a7c:	24060004 	li	a2,4
  405a80:	8fbc0010 	lw	gp,16(sp)
  405a84:	3c050041 	lui	a1,0x41
  405a88:	8f998190 	lw	t9,-32368(gp)
  405a8c:	02002021 	move	a0,s0
  405a90:	24a5c230 	addiu	a1,a1,-15824
  405a94:	0320f809 	jalr	t9
  405a98:	24060004 	li	a2,4
  405a9c:	8fbc0010 	lw	gp,16(sp)
  405aa0:	3c050041 	lui	a1,0x41
  405aa4:	8f998190 	lw	t9,-32368(gp)
  405aa8:	02002021 	move	a0,s0
  405aac:	24a5c234 	addiu	a1,a1,-15820
  405ab0:	0320f809 	jalr	t9
  405ab4:	24060004 	li	a2,4
  405ab8:	8fbc0010 	lw	gp,16(sp)
  405abc:	3c050041 	lui	a1,0x41
  405ac0:	8f998190 	lw	t9,-32368(gp)
  405ac4:	02002021 	move	a0,s0
  405ac8:	24a5c238 	addiu	a1,a1,-15816
  405acc:	0320f809 	jalr	t9
  405ad0:	24060004 	li	a2,4
  405ad4:	8fbc0010 	lw	gp,16(sp)
  405ad8:	3c050041 	lui	a1,0x41
  405adc:	8f998190 	lw	t9,-32368(gp)
  405ae0:	02002021 	move	a0,s0
  405ae4:	24a5c23c 	addiu	a1,a1,-15812
  405ae8:	0320f809 	jalr	t9
  405aec:	24060004 	li	a2,4
  405af0:	8fbc0010 	lw	gp,16(sp)
  405af4:	3c050041 	lui	a1,0x41
  405af8:	8f998190 	lw	t9,-32368(gp)
  405afc:	02002021 	move	a0,s0
  405b00:	24a5c240 	addiu	a1,a1,-15808
  405b04:	0320f809 	jalr	t9
  405b08:	24060004 	li	a2,4
  405b0c:	8fbc0010 	lw	gp,16(sp)
  405b10:	3c050041 	lui	a1,0x41
  405b14:	8f998190 	lw	t9,-32368(gp)
  405b18:	02002021 	move	a0,s0
  405b1c:	24a5c244 	addiu	a1,a1,-15804
  405b20:	0320f809 	jalr	t9
  405b24:	24060004 	li	a2,4
  405b28:	8fbc0010 	lw	gp,16(sp)
  405b2c:	3c050041 	lui	a1,0x41
  405b30:	8f998190 	lw	t9,-32368(gp)
  405b34:	02002021 	move	a0,s0
  405b38:	24a5c248 	addiu	a1,a1,-15800
  405b3c:	0320f809 	jalr	t9
  405b40:	24060004 	li	a2,4
  405b44:	8fbc0010 	lw	gp,16(sp)
  405b48:	3c050041 	lui	a1,0x41
  405b4c:	8f998190 	lw	t9,-32368(gp)
  405b50:	02002021 	move	a0,s0
  405b54:	24a5c24c 	addiu	a1,a1,-15796
  405b58:	0320f809 	jalr	t9
  405b5c:	24060004 	li	a2,4
  405b60:	8fbc0010 	lw	gp,16(sp)
  405b64:	3c050041 	lui	a1,0x41
  405b68:	8f998190 	lw	t9,-32368(gp)
  405b6c:	02002021 	move	a0,s0
  405b70:	24a5c250 	addiu	a1,a1,-15792
  405b74:	0320f809 	jalr	t9
  405b78:	24060004 	li	a2,4
  405b7c:	8fbc0010 	lw	gp,16(sp)
  405b80:	3c050041 	lui	a1,0x41
  405b84:	8f998190 	lw	t9,-32368(gp)
  405b88:	02002021 	move	a0,s0
  405b8c:	24a5c254 	addiu	a1,a1,-15788
  405b90:	0320f809 	jalr	t9
  405b94:	24060004 	li	a2,4
  405b98:	8fbc0010 	lw	gp,16(sp)
  405b9c:	3c050041 	lui	a1,0x41
  405ba0:	8f998190 	lw	t9,-32368(gp)
  405ba4:	02002021 	move	a0,s0
  405ba8:	24a5c258 	addiu	a1,a1,-15784
  405bac:	0320f809 	jalr	t9
  405bb0:	24060004 	li	a2,4
  405bb4:	8fbc0010 	lw	gp,16(sp)
  405bb8:	3c050041 	lui	a1,0x41
  405bbc:	8f998190 	lw	t9,-32368(gp)
  405bc0:	02002021 	move	a0,s0
  405bc4:	24a5c25c 	addiu	a1,a1,-15780
  405bc8:	0320f809 	jalr	t9
  405bcc:	24060004 	li	a2,4
  405bd0:	8fbc0010 	lw	gp,16(sp)
  405bd4:	3c050041 	lui	a1,0x41
  405bd8:	8f998190 	lw	t9,-32368(gp)
  405bdc:	02002021 	move	a0,s0
  405be0:	24a5c260 	addiu	a1,a1,-15776
  405be4:	0320f809 	jalr	t9
  405be8:	24060004 	li	a2,4
  405bec:	8fbc0010 	lw	gp,16(sp)
  405bf0:	3c050041 	lui	a1,0x41
  405bf4:	8f998190 	lw	t9,-32368(gp)
  405bf8:	02002021 	move	a0,s0
  405bfc:	24a5c264 	addiu	a1,a1,-15772
  405c00:	0320f809 	jalr	t9
  405c04:	24060004 	li	a2,4
  405c08:	8fbc0010 	lw	gp,16(sp)
  405c0c:	3c050041 	lui	a1,0x41
  405c10:	8f998190 	lw	t9,-32368(gp)
  405c14:	02002021 	move	a0,s0
  405c18:	24a5c268 	addiu	a1,a1,-15768
  405c1c:	0320f809 	jalr	t9
  405c20:	24060004 	li	a2,4
  405c24:	8fbc0010 	lw	gp,16(sp)
  405c28:	3c050041 	lui	a1,0x41
  405c2c:	8f998190 	lw	t9,-32368(gp)
  405c30:	02002021 	move	a0,s0
  405c34:	24a5c26c 	addiu	a1,a1,-15764
  405c38:	0320f809 	jalr	t9
  405c3c:	24060004 	li	a2,4
  405c40:	8fbc0010 	lw	gp,16(sp)
  405c44:	3c050041 	lui	a1,0x41
  405c48:	8f998190 	lw	t9,-32368(gp)
  405c4c:	02002021 	move	a0,s0
  405c50:	24a5c270 	addiu	a1,a1,-15760
  405c54:	0320f809 	jalr	t9
  405c58:	24060004 	li	a2,4
  405c5c:	8fbc0010 	lw	gp,16(sp)
  405c60:	3c050041 	lui	a1,0x41
  405c64:	8f998190 	lw	t9,-32368(gp)
  405c68:	02002021 	move	a0,s0
  405c6c:	24a5c274 	addiu	a1,a1,-15756
  405c70:	0320f809 	jalr	t9
  405c74:	24060004 	li	a2,4
  405c78:	8fbc0010 	lw	gp,16(sp)
  405c7c:	8f998144 	lw	t9,-32444(gp)
  405c80:	0320f809 	jalr	t9
  405c84:	02002021 	move	a0,s0
  405c88:	8fbf001c 	lw	ra,28(sp)
  405c8c:	02001021 	move	v0,s0
  405c90:	8fb00018 	lw	s0,24(sp)
  405c94:	03e00008 	jr	ra
  405c98:	27bd0020 	addiu	sp,sp,32
  405c9c:	8f9981b4 	lw	t9,-32332(gp)
  405ca0:	3c040041 	lui	a0,0x41
  405ca4:	0320f809 	jalr	t9
  405ca8:	2484c1e8 	addiu	a0,a0,-15896
  405cac:	08101723 	j	405c8c <input_gpio_export+0x35c>
  405cb0:	8fbf001c 	lw	ra,28(sp)

00405cb4 <input_gpio_direction_set>:
  405cb4:	27bdff80 	addiu	sp,sp,-128
  405cb8:	3c1c0042 	lui	gp,0x42
  405cbc:	afb4006c 	sw	s4,108(sp)
  405cc0:	afb30068 	sw	s3,104(sp)
  405cc4:	3c140041 	lui	s4,0x41
  405cc8:	3c130041 	lui	s3,0x41
  405ccc:	afb50070 	sw	s5,112(sp)
  405cd0:	279c5520 	addiu	gp,gp,21792
  405cd4:	2694c644 	addiu	s4,s4,-14780
  405cd8:	2673c5fc 	addiu	s3,s3,-14852
  405cdc:	3c150041 	lui	s5,0x41
  405ce0:	afb70078 	sw	s7,120(sp)
  405ce4:	afb60074 	sw	s6,116(sp)
  405ce8:	afb20064 	sw	s2,100(sp)
  405cec:	afb0005c 	sw	s0,92(sp)
  405cf0:	afbf007c 	sw	ra,124(sp)
  405cf4:	afb10060 	sw	s1,96(sp)
  405cf8:	afbc0010 	sw	gp,16(sp)
  405cfc:	24120001 	li	s2,1
  405d00:	00008021 	move	s0,zero
  405d04:	26970020 	addiu	s7,s4,32
  405d08:	26b5c620 	addiu	s5,s5,-14816
  405d0c:	26760020 	addiu	s6,s3,32
  405d10:	8f998184 	lw	t9,-32380(gp)
  405d14:	27a40018 	addiu	a0,sp,24
  405d18:	00002821 	move	a1,zero
  405d1c:	0320f809 	jalr	t9
  405d20:	24060040 	li	a2,64
  405d24:	12000045 	beqz	s0,405e3c <input_gpio_direction_set+0x188>
  405d28:	8fbc0010 	lw	gp,16(sp)
  405d2c:	24020001 	li	v0,1
  405d30:	1202007c 	beq	s0,v0,405f24 <input_gpio_direction_set+0x270>
  405d34:	24020002 	li	v0,2
  405d38:	1202008b 	beq	s0,v0,405f68 <input_gpio_direction_set+0x2b4>
  405d3c:	24020003 	li	v0,3
  405d40:	1202009a 	beq	s0,v0,405fac <input_gpio_direction_set+0x2f8>
  405d44:	24020004 	li	v0,4
  405d48:	120200a9 	beq	s0,v0,405ff0 <input_gpio_direction_set+0x33c>
  405d4c:	24020005 	li	v0,5
  405d50:	120200b8 	beq	s0,v0,406034 <input_gpio_direction_set+0x380>
  405d54:	24020006 	li	v0,6
  405d58:	120200c7 	beq	s0,v0,406078 <input_gpio_direction_set+0x3c4>
  405d5c:	24020007 	li	v0,7
  405d60:	120200d6 	beq	s0,v0,4060bc <input_gpio_direction_set+0x408>
  405d64:	24020008 	li	v0,8
  405d68:	120200e5 	beq	s0,v0,406100 <input_gpio_direction_set+0x44c>
  405d6c:	24020009 	li	v0,9
  405d70:	120200f4 	beq	s0,v0,406144 <input_gpio_direction_set+0x490>
  405d74:	2402000a 	li	v0,10
  405d78:	12020103 	beq	s0,v0,406188 <input_gpio_direction_set+0x4d4>
  405d7c:	2402000b 	li	v0,11
  405d80:	12020112 	beq	s0,v0,4061cc <input_gpio_direction_set+0x518>
  405d84:	2402000c 	li	v0,12
  405d88:	12020121 	beq	s0,v0,406210 <input_gpio_direction_set+0x55c>
  405d8c:	2402000d 	li	v0,13
  405d90:	12020130 	beq	s0,v0,406254 <input_gpio_direction_set+0x5a0>
  405d94:	2402000e 	li	v0,14
  405d98:	1202013f 	beq	s0,v0,406298 <input_gpio_direction_set+0x5e4>
  405d9c:	2402000f 	li	v0,15
  405da0:	1202014e 	beq	s0,v0,4062dc <input_gpio_direction_set+0x628>
  405da4:	24020010 	li	v0,16
  405da8:	1202015d 	beq	s0,v0,406320 <input_gpio_direction_set+0x66c>
  405dac:	24020011 	li	v0,17
  405db0:	1202016c 	beq	s0,v0,406364 <input_gpio_direction_set+0x6b0>
  405db4:	24020012 	li	v0,18
  405db8:	1202017b 	beq	s0,v0,4063a8 <input_gpio_direction_set+0x6f4>
  405dbc:	24020013 	li	v0,19
  405dc0:	1202019a 	beq	s0,v0,40642c <input_gpio_direction_set+0x778>
  405dc4:	24020014 	li	v0,20
  405dc8:	120201a9 	beq	s0,v0,406470 <input_gpio_direction_set+0x7bc>
  405dcc:	24020015 	li	v0,21
  405dd0:	120201b8 	beq	s0,v0,4064b4 <input_gpio_direction_set+0x800>
  405dd4:	24020016 	li	v0,22
  405dd8:	120201c7 	beq	s0,v0,4064f8 <input_gpio_direction_set+0x844>
  405ddc:	24020017 	li	v0,23
  405de0:	120201d6 	beq	s0,v0,40653c <input_gpio_direction_set+0x888>
  405de4:	24020018 	li	v0,24
  405de8:	120201e5 	beq	s0,v0,406580 <input_gpio_direction_set+0x8cc>
  405dec:	24020019 	li	v0,25
  405df0:	120201f4 	beq	s0,v0,4065c4 <input_gpio_direction_set+0x910>
  405df4:	2402001a 	li	v0,26
  405df8:	1202017c 	beq	s0,v0,4063ec <input_gpio_direction_set+0x738>
  405dfc:	02801021 	move	v0,s4
  405e00:	27a30018 	addiu	v1,sp,24
  405e04:	8c470000 	lw	a3,0(v0)
  405e08:	8c460004 	lw	a2,4(v0)
  405e0c:	8c450008 	lw	a1,8(v0)
  405e10:	8c44000c 	lw	a0,12(v0)
  405e14:	24420010 	addiu	v0,v0,16
  405e18:	ac670000 	sw	a3,0(v1)
  405e1c:	ac660004 	sw	a2,4(v1)
  405e20:	ac650008 	sw	a1,8(v1)
  405e24:	ac64000c 	sw	a0,12(v1)
  405e28:	1457fff6 	bne	v0,s7,405e04 <input_gpio_direction_set+0x150>
  405e2c:	24630010 	addiu	v1,v1,16
  405e30:	96e20000 	lhu	v0,0(s7)
  405e34:	081017a0 	j	405e80 <input_gpio_direction_set+0x1cc>
  405e38:	a4620000 	sh	v0,0(v1)
  405e3c:	3c020041 	lui	v0,0x41
  405e40:	2442c278 	addiu	v0,v0,-15752
  405e44:	27a30018 	addiu	v1,sp,24
  405e48:	24440020 	addiu	a0,v0,32
  405e4c:	8c480000 	lw	t0,0(v0)
  405e50:	8c470004 	lw	a3,4(v0)
  405e54:	8c460008 	lw	a2,8(v0)
  405e58:	8c45000c 	lw	a1,12(v0)
  405e5c:	24420010 	addiu	v0,v0,16
  405e60:	ac680000 	sw	t0,0(v1)
  405e64:	ac670004 	sw	a3,4(v1)
  405e68:	ac660008 	sw	a2,8(v1)
  405e6c:	ac65000c 	sw	a1,12(v1)
  405e70:	1444fff6 	bne	v0,a0,405e4c <input_gpio_direction_set+0x198>
  405e74:	24630010 	addiu	v1,v1,16
  405e78:	94420000 	lhu	v0,0(v0)
  405e7c:	a4620000 	sh	v0,0(v1)
  405e80:	8f9981a4 	lw	t9,-32348(gp)
  405e84:	27a40018 	addiu	a0,sp,24
  405e88:	0320f809 	jalr	t9
  405e8c:	24050001 	li	a1,1
  405e90:	00408821 	move	s1,v0
  405e94:	2402ffff 	li	v0,-1
  405e98:	1222001b 	beq	s1,v0,405f08 <input_gpio_direction_set+0x254>
  405e9c:	8fbc0010 	lw	gp,16(sp)
  405ea0:	8f998190 	lw	t9,-32368(gp)
  405ea4:	3c050041 	lui	a1,0x41
  405ea8:	02202021 	move	a0,s1
  405eac:	24a5c68c 	addiu	a1,a1,-14708
  405eb0:	0320f809 	jalr	t9
  405eb4:	24060003 	li	a2,3
  405eb8:	8fbc0010 	lw	gp,16(sp)
  405ebc:	26100001 	addiu	s0,s0,1
  405ec0:	2402001c 	li	v0,28
  405ec4:	1602ff92 	bne	s0,v0,405d10 <input_gpio_direction_set+0x5c>
  405ec8:	26520001 	addiu	s2,s2,1
  405ecc:	8f998144 	lw	t9,-32444(gp)
  405ed0:	0320f809 	jalr	t9
  405ed4:	02202021 	move	a0,s1
  405ed8:	8fbf007c 	lw	ra,124(sp)
  405edc:	8fb70078 	lw	s7,120(sp)
  405ee0:	8fb60074 	lw	s6,116(sp)
  405ee4:	8fb50070 	lw	s5,112(sp)
  405ee8:	8fb4006c 	lw	s4,108(sp)
  405eec:	8fb30068 	lw	s3,104(sp)
  405ef0:	8fb20064 	lw	s2,100(sp)
  405ef4:	8fb10060 	lw	s1,96(sp)
  405ef8:	8fb0005c 	lw	s0,92(sp)
  405efc:	24020001 	li	v0,1
  405f00:	03e00008 	jr	ra
  405f04:	27bd0080 	addiu	sp,sp,128
  405f08:	8f9981f8 	lw	t9,-32264(gp)
  405f0c:	3c040041 	lui	a0,0x41
  405f10:	2484c668 	addiu	a0,a0,-14744
  405f14:	0320f809 	jalr	t9
  405f18:	02402821 	move	a1,s2
  405f1c:	081017af 	j	405ebc <input_gpio_direction_set+0x208>
  405f20:	8fbc0010 	lw	gp,16(sp)
  405f24:	3c020041 	lui	v0,0x41
  405f28:	2442c29c 	addiu	v0,v0,-15716
  405f2c:	27a30018 	addiu	v1,sp,24
  405f30:	24440020 	addiu	a0,v0,32
  405f34:	8c480000 	lw	t0,0(v0)
  405f38:	8c470004 	lw	a3,4(v0)
  405f3c:	8c460008 	lw	a2,8(v0)
  405f40:	8c45000c 	lw	a1,12(v0)
  405f44:	24420010 	addiu	v0,v0,16
  405f48:	ac680000 	sw	t0,0(v1)
  405f4c:	ac670004 	sw	a3,4(v1)
  405f50:	ac660008 	sw	a2,8(v1)
  405f54:	ac65000c 	sw	a1,12(v1)
  405f58:	1444fff6 	bne	v0,a0,405f34 <input_gpio_direction_set+0x280>
  405f5c:	24630010 	addiu	v1,v1,16
  405f60:	0810179f 	j	405e7c <input_gpio_direction_set+0x1c8>
  405f64:	94420000 	lhu	v0,0(v0)
  405f68:	3c020041 	lui	v0,0x41
  405f6c:	2442c2c0 	addiu	v0,v0,-15680
  405f70:	27a30018 	addiu	v1,sp,24
  405f74:	24440020 	addiu	a0,v0,32
  405f78:	8c480000 	lw	t0,0(v0)
  405f7c:	8c470004 	lw	a3,4(v0)
  405f80:	8c460008 	lw	a2,8(v0)
  405f84:	8c45000c 	lw	a1,12(v0)
  405f88:	24420010 	addiu	v0,v0,16
  405f8c:	ac680000 	sw	t0,0(v1)
  405f90:	ac670004 	sw	a3,4(v1)
  405f94:	ac660008 	sw	a2,8(v1)
  405f98:	ac65000c 	sw	a1,12(v1)
  405f9c:	1444fff6 	bne	v0,a0,405f78 <input_gpio_direction_set+0x2c4>
  405fa0:	24630010 	addiu	v1,v1,16
  405fa4:	0810179f 	j	405e7c <input_gpio_direction_set+0x1c8>
  405fa8:	94420000 	lhu	v0,0(v0)
  405fac:	3c020041 	lui	v0,0x41
  405fb0:	2442c2e4 	addiu	v0,v0,-15644
  405fb4:	27a30018 	addiu	v1,sp,24
  405fb8:	24440020 	addiu	a0,v0,32
  405fbc:	8c480000 	lw	t0,0(v0)
  405fc0:	8c470004 	lw	a3,4(v0)
  405fc4:	8c460008 	lw	a2,8(v0)
  405fc8:	8c45000c 	lw	a1,12(v0)
  405fcc:	24420010 	addiu	v0,v0,16
  405fd0:	ac680000 	sw	t0,0(v1)
  405fd4:	ac670004 	sw	a3,4(v1)
  405fd8:	ac660008 	sw	a2,8(v1)
  405fdc:	ac65000c 	sw	a1,12(v1)
  405fe0:	1444fff6 	bne	v0,a0,405fbc <input_gpio_direction_set+0x308>
  405fe4:	24630010 	addiu	v1,v1,16
  405fe8:	0810179f 	j	405e7c <input_gpio_direction_set+0x1c8>
  405fec:	94420000 	lhu	v0,0(v0)
  405ff0:	3c020041 	lui	v0,0x41
  405ff4:	2442c308 	addiu	v0,v0,-15608
  405ff8:	27a30018 	addiu	v1,sp,24
  405ffc:	24440020 	addiu	a0,v0,32
  406000:	8c480000 	lw	t0,0(v0)
  406004:	8c470004 	lw	a3,4(v0)
  406008:	8c460008 	lw	a2,8(v0)
  40600c:	8c45000c 	lw	a1,12(v0)
  406010:	24420010 	addiu	v0,v0,16
  406014:	ac680000 	sw	t0,0(v1)
  406018:	ac670004 	sw	a3,4(v1)
  40601c:	ac660008 	sw	a2,8(v1)
  406020:	ac65000c 	sw	a1,12(v1)
  406024:	1444fff6 	bne	v0,a0,406000 <input_gpio_direction_set+0x34c>
  406028:	24630010 	addiu	v1,v1,16
  40602c:	0810179f 	j	405e7c <input_gpio_direction_set+0x1c8>
  406030:	94420000 	lhu	v0,0(v0)
  406034:	3c020041 	lui	v0,0x41
  406038:	2442c32c 	addiu	v0,v0,-15572
  40603c:	27a30018 	addiu	v1,sp,24
  406040:	24440020 	addiu	a0,v0,32
  406044:	8c480000 	lw	t0,0(v0)
  406048:	8c470004 	lw	a3,4(v0)
  40604c:	8c460008 	lw	a2,8(v0)
  406050:	8c45000c 	lw	a1,12(v0)
  406054:	24420010 	addiu	v0,v0,16
  406058:	ac680000 	sw	t0,0(v1)
  40605c:	ac670004 	sw	a3,4(v1)
  406060:	ac660008 	sw	a2,8(v1)
  406064:	ac65000c 	sw	a1,12(v1)
  406068:	1444fff6 	bne	v0,a0,406044 <input_gpio_direction_set+0x390>
  40606c:	24630010 	addiu	v1,v1,16
  406070:	0810179f 	j	405e7c <input_gpio_direction_set+0x1c8>
  406074:	94420000 	lhu	v0,0(v0)
  406078:	3c020041 	lui	v0,0x41
  40607c:	2442c350 	addiu	v0,v0,-15536
  406080:	27a30018 	addiu	v1,sp,24
  406084:	24440020 	addiu	a0,v0,32
  406088:	8c480000 	lw	t0,0(v0)
  40608c:	8c470004 	lw	a3,4(v0)
  406090:	8c460008 	lw	a2,8(v0)
  406094:	8c45000c 	lw	a1,12(v0)
  406098:	24420010 	addiu	v0,v0,16
  40609c:	ac680000 	sw	t0,0(v1)
  4060a0:	ac670004 	sw	a3,4(v1)
  4060a4:	ac660008 	sw	a2,8(v1)
  4060a8:	ac65000c 	sw	a1,12(v1)
  4060ac:	1444fff6 	bne	v0,a0,406088 <input_gpio_direction_set+0x3d4>
  4060b0:	24630010 	addiu	v1,v1,16
  4060b4:	0810179f 	j	405e7c <input_gpio_direction_set+0x1c8>
  4060b8:	94420000 	lhu	v0,0(v0)
  4060bc:	3c020041 	lui	v0,0x41
  4060c0:	2442c374 	addiu	v0,v0,-15500
  4060c4:	27a30018 	addiu	v1,sp,24
  4060c8:	24440020 	addiu	a0,v0,32
  4060cc:	8c480000 	lw	t0,0(v0)
  4060d0:	8c470004 	lw	a3,4(v0)
  4060d4:	8c460008 	lw	a2,8(v0)
  4060d8:	8c45000c 	lw	a1,12(v0)
  4060dc:	24420010 	addiu	v0,v0,16
  4060e0:	ac680000 	sw	t0,0(v1)
  4060e4:	ac670004 	sw	a3,4(v1)
  4060e8:	ac660008 	sw	a2,8(v1)
  4060ec:	ac65000c 	sw	a1,12(v1)
  4060f0:	1444fff6 	bne	v0,a0,4060cc <input_gpio_direction_set+0x418>
  4060f4:	24630010 	addiu	v1,v1,16
  4060f8:	0810179f 	j	405e7c <input_gpio_direction_set+0x1c8>
  4060fc:	94420000 	lhu	v0,0(v0)
  406100:	3c020041 	lui	v0,0x41
  406104:	2442c398 	addiu	v0,v0,-15464
  406108:	27a30018 	addiu	v1,sp,24
  40610c:	24440020 	addiu	a0,v0,32
  406110:	8c480000 	lw	t0,0(v0)
  406114:	8c470004 	lw	a3,4(v0)
  406118:	8c460008 	lw	a2,8(v0)
  40611c:	8c45000c 	lw	a1,12(v0)
  406120:	24420010 	addiu	v0,v0,16
  406124:	ac680000 	sw	t0,0(v1)
  406128:	ac670004 	sw	a3,4(v1)
  40612c:	ac660008 	sw	a2,8(v1)
  406130:	ac65000c 	sw	a1,12(v1)
  406134:	1444fff6 	bne	v0,a0,406110 <input_gpio_direction_set+0x45c>
  406138:	24630010 	addiu	v1,v1,16
  40613c:	0810179f 	j	405e7c <input_gpio_direction_set+0x1c8>
  406140:	94420000 	lhu	v0,0(v0)
  406144:	3c020041 	lui	v0,0x41
  406148:	2442c3bc 	addiu	v0,v0,-15428
  40614c:	27a30018 	addiu	v1,sp,24
  406150:	24440020 	addiu	a0,v0,32
  406154:	8c480000 	lw	t0,0(v0)
  406158:	8c470004 	lw	a3,4(v0)
  40615c:	8c460008 	lw	a2,8(v0)
  406160:	8c45000c 	lw	a1,12(v0)
  406164:	24420010 	addiu	v0,v0,16
  406168:	ac680000 	sw	t0,0(v1)
  40616c:	ac670004 	sw	a3,4(v1)
  406170:	ac660008 	sw	a2,8(v1)
  406174:	ac65000c 	sw	a1,12(v1)
  406178:	1444fff6 	bne	v0,a0,406154 <input_gpio_direction_set+0x4a0>
  40617c:	24630010 	addiu	v1,v1,16
  406180:	0810179f 	j	405e7c <input_gpio_direction_set+0x1c8>
  406184:	94420000 	lhu	v0,0(v0)
  406188:	3c020041 	lui	v0,0x41
  40618c:	2442c3e0 	addiu	v0,v0,-15392
  406190:	27a30018 	addiu	v1,sp,24
  406194:	24440020 	addiu	a0,v0,32
  406198:	8c480000 	lw	t0,0(v0)
  40619c:	8c470004 	lw	a3,4(v0)
  4061a0:	8c460008 	lw	a2,8(v0)
  4061a4:	8c45000c 	lw	a1,12(v0)
  4061a8:	24420010 	addiu	v0,v0,16
  4061ac:	ac680000 	sw	t0,0(v1)
  4061b0:	ac670004 	sw	a3,4(v1)
  4061b4:	ac660008 	sw	a2,8(v1)
  4061b8:	ac65000c 	sw	a1,12(v1)
  4061bc:	1444fff6 	bne	v0,a0,406198 <input_gpio_direction_set+0x4e4>
  4061c0:	24630010 	addiu	v1,v1,16
  4061c4:	0810179f 	j	405e7c <input_gpio_direction_set+0x1c8>
  4061c8:	94420000 	lhu	v0,0(v0)
  4061cc:	3c020041 	lui	v0,0x41
  4061d0:	2442c404 	addiu	v0,v0,-15356
  4061d4:	27a30018 	addiu	v1,sp,24
  4061d8:	24440020 	addiu	a0,v0,32
  4061dc:	8c480000 	lw	t0,0(v0)
  4061e0:	8c470004 	lw	a3,4(v0)
  4061e4:	8c460008 	lw	a2,8(v0)
  4061e8:	8c45000c 	lw	a1,12(v0)
  4061ec:	24420010 	addiu	v0,v0,16
  4061f0:	ac680000 	sw	t0,0(v1)
  4061f4:	ac670004 	sw	a3,4(v1)
  4061f8:	ac660008 	sw	a2,8(v1)
  4061fc:	ac65000c 	sw	a1,12(v1)
  406200:	1444fff6 	bne	v0,a0,4061dc <input_gpio_direction_set+0x528>
  406204:	24630010 	addiu	v1,v1,16
  406208:	0810179f 	j	405e7c <input_gpio_direction_set+0x1c8>
  40620c:	94420000 	lhu	v0,0(v0)
  406210:	3c020041 	lui	v0,0x41
  406214:	2442c428 	addiu	v0,v0,-15320
  406218:	27a30018 	addiu	v1,sp,24
  40621c:	24440020 	addiu	a0,v0,32
  406220:	8c480000 	lw	t0,0(v0)
  406224:	8c470004 	lw	a3,4(v0)
  406228:	8c460008 	lw	a2,8(v0)
  40622c:	8c45000c 	lw	a1,12(v0)
  406230:	24420010 	addiu	v0,v0,16
  406234:	ac680000 	sw	t0,0(v1)
  406238:	ac670004 	sw	a3,4(v1)
  40623c:	ac660008 	sw	a2,8(v1)
  406240:	ac65000c 	sw	a1,12(v1)
  406244:	1444fff6 	bne	v0,a0,406220 <input_gpio_direction_set+0x56c>
  406248:	24630010 	addiu	v1,v1,16
  40624c:	0810179f 	j	405e7c <input_gpio_direction_set+0x1c8>
  406250:	94420000 	lhu	v0,0(v0)
  406254:	3c020041 	lui	v0,0x41
  406258:	2442c44c 	addiu	v0,v0,-15284
  40625c:	27a30018 	addiu	v1,sp,24
  406260:	24440020 	addiu	a0,v0,32
  406264:	8c480000 	lw	t0,0(v0)
  406268:	8c470004 	lw	a3,4(v0)
  40626c:	8c460008 	lw	a2,8(v0)
  406270:	8c45000c 	lw	a1,12(v0)
  406274:	24420010 	addiu	v0,v0,16
  406278:	ac680000 	sw	t0,0(v1)
  40627c:	ac670004 	sw	a3,4(v1)
  406280:	ac660008 	sw	a2,8(v1)
  406284:	ac65000c 	sw	a1,12(v1)
  406288:	1444fff6 	bne	v0,a0,406264 <input_gpio_direction_set+0x5b0>
  40628c:	24630010 	addiu	v1,v1,16
  406290:	0810179f 	j	405e7c <input_gpio_direction_set+0x1c8>
  406294:	94420000 	lhu	v0,0(v0)
  406298:	3c020041 	lui	v0,0x41
  40629c:	2442c470 	addiu	v0,v0,-15248
  4062a0:	27a30018 	addiu	v1,sp,24
  4062a4:	24440020 	addiu	a0,v0,32
  4062a8:	8c480000 	lw	t0,0(v0)
  4062ac:	8c470004 	lw	a3,4(v0)
  4062b0:	8c460008 	lw	a2,8(v0)
  4062b4:	8c45000c 	lw	a1,12(v0)
  4062b8:	24420010 	addiu	v0,v0,16
  4062bc:	ac680000 	sw	t0,0(v1)
  4062c0:	ac670004 	sw	a3,4(v1)
  4062c4:	ac660008 	sw	a2,8(v1)
  4062c8:	ac65000c 	sw	a1,12(v1)
  4062cc:	1444fff6 	bne	v0,a0,4062a8 <input_gpio_direction_set+0x5f4>
  4062d0:	24630010 	addiu	v1,v1,16
  4062d4:	0810179f 	j	405e7c <input_gpio_direction_set+0x1c8>
  4062d8:	94420000 	lhu	v0,0(v0)
  4062dc:	3c020041 	lui	v0,0x41
  4062e0:	2442c494 	addiu	v0,v0,-15212
  4062e4:	27a30018 	addiu	v1,sp,24
  4062e8:	24440020 	addiu	a0,v0,32
  4062ec:	8c480000 	lw	t0,0(v0)
  4062f0:	8c470004 	lw	a3,4(v0)
  4062f4:	8c460008 	lw	a2,8(v0)
  4062f8:	8c45000c 	lw	a1,12(v0)
  4062fc:	24420010 	addiu	v0,v0,16
  406300:	ac680000 	sw	t0,0(v1)
  406304:	ac670004 	sw	a3,4(v1)
  406308:	ac660008 	sw	a2,8(v1)
  40630c:	ac65000c 	sw	a1,12(v1)
  406310:	1444fff6 	bne	v0,a0,4062ec <input_gpio_direction_set+0x638>
  406314:	24630010 	addiu	v1,v1,16
  406318:	0810179f 	j	405e7c <input_gpio_direction_set+0x1c8>
  40631c:	94420000 	lhu	v0,0(v0)
  406320:	3c020041 	lui	v0,0x41
  406324:	2442c4b8 	addiu	v0,v0,-15176
  406328:	27a30018 	addiu	v1,sp,24
  40632c:	24440020 	addiu	a0,v0,32
  406330:	8c480000 	lw	t0,0(v0)
  406334:	8c470004 	lw	a3,4(v0)
  406338:	8c460008 	lw	a2,8(v0)
  40633c:	8c45000c 	lw	a1,12(v0)
  406340:	24420010 	addiu	v0,v0,16
  406344:	ac680000 	sw	t0,0(v1)
  406348:	ac670004 	sw	a3,4(v1)
  40634c:	ac660008 	sw	a2,8(v1)
  406350:	ac65000c 	sw	a1,12(v1)
  406354:	1444fff6 	bne	v0,a0,406330 <input_gpio_direction_set+0x67c>
  406358:	24630010 	addiu	v1,v1,16
  40635c:	0810179f 	j	405e7c <input_gpio_direction_set+0x1c8>
  406360:	94420000 	lhu	v0,0(v0)
  406364:	3c020041 	lui	v0,0x41
  406368:	2442c4dc 	addiu	v0,v0,-15140
  40636c:	27a30018 	addiu	v1,sp,24
  406370:	24440020 	addiu	a0,v0,32
  406374:	8c480000 	lw	t0,0(v0)
  406378:	8c470004 	lw	a3,4(v0)
  40637c:	8c460008 	lw	a2,8(v0)
  406380:	8c45000c 	lw	a1,12(v0)
  406384:	24420010 	addiu	v0,v0,16
  406388:	ac680000 	sw	t0,0(v1)
  40638c:	ac670004 	sw	a3,4(v1)
  406390:	ac660008 	sw	a2,8(v1)
  406394:	ac65000c 	sw	a1,12(v1)
  406398:	1444fff6 	bne	v0,a0,406374 <input_gpio_direction_set+0x6c0>
  40639c:	24630010 	addiu	v1,v1,16
  4063a0:	0810179f 	j	405e7c <input_gpio_direction_set+0x1c8>
  4063a4:	94420000 	lhu	v0,0(v0)
  4063a8:	3c020041 	lui	v0,0x41
  4063ac:	2442c500 	addiu	v0,v0,-15104
  4063b0:	27a30018 	addiu	v1,sp,24
  4063b4:	24440020 	addiu	a0,v0,32
  4063b8:	8c480000 	lw	t0,0(v0)
  4063bc:	8c470004 	lw	a3,4(v0)
  4063c0:	8c460008 	lw	a2,8(v0)
  4063c4:	8c45000c 	lw	a1,12(v0)
  4063c8:	24420010 	addiu	v0,v0,16
  4063cc:	ac680000 	sw	t0,0(v1)
  4063d0:	ac670004 	sw	a3,4(v1)
  4063d4:	ac660008 	sw	a2,8(v1)
  4063d8:	ac65000c 	sw	a1,12(v1)
  4063dc:	1444fff6 	bne	v0,a0,4063b8 <input_gpio_direction_set+0x704>
  4063e0:	24630010 	addiu	v1,v1,16
  4063e4:	0810179f 	j	405e7c <input_gpio_direction_set+0x1c8>
  4063e8:	94420000 	lhu	v0,0(v0)
  4063ec:	02a01021 	move	v0,s5
  4063f0:	27a30018 	addiu	v1,sp,24
  4063f4:	26a40020 	addiu	a0,s5,32
  4063f8:	8c480000 	lw	t0,0(v0)
  4063fc:	8c470004 	lw	a3,4(v0)
  406400:	8c460008 	lw	a2,8(v0)
  406404:	8c45000c 	lw	a1,12(v0)
  406408:	24420010 	addiu	v0,v0,16
  40640c:	ac680000 	sw	t0,0(v1)
  406410:	ac670004 	sw	a3,4(v1)
  406414:	ac660008 	sw	a2,8(v1)
  406418:	ac65000c 	sw	a1,12(v1)
  40641c:	1444fff6 	bne	v0,a0,4063f8 <input_gpio_direction_set+0x744>
  406420:	24630010 	addiu	v1,v1,16
  406424:	0810179f 	j	405e7c <input_gpio_direction_set+0x1c8>
  406428:	94420000 	lhu	v0,0(v0)
  40642c:	3c020041 	lui	v0,0x41
  406430:	2442c524 	addiu	v0,v0,-15068
  406434:	27a30018 	addiu	v1,sp,24
  406438:	24440020 	addiu	a0,v0,32
  40643c:	8c480000 	lw	t0,0(v0)
  406440:	8c470004 	lw	a3,4(v0)
  406444:	8c460008 	lw	a2,8(v0)
  406448:	8c45000c 	lw	a1,12(v0)
  40644c:	24420010 	addiu	v0,v0,16
  406450:	ac680000 	sw	t0,0(v1)
  406454:	ac670004 	sw	a3,4(v1)
  406458:	ac660008 	sw	a2,8(v1)
  40645c:	ac65000c 	sw	a1,12(v1)
  406460:	1444fff6 	bne	v0,a0,40643c <input_gpio_direction_set+0x788>
  406464:	24630010 	addiu	v1,v1,16
  406468:	0810179f 	j	405e7c <input_gpio_direction_set+0x1c8>
  40646c:	94420000 	lhu	v0,0(v0)
  406470:	3c020041 	lui	v0,0x41
  406474:	2442c548 	addiu	v0,v0,-15032
  406478:	27a30018 	addiu	v1,sp,24
  40647c:	24440020 	addiu	a0,v0,32
  406480:	8c480000 	lw	t0,0(v0)
  406484:	8c470004 	lw	a3,4(v0)
  406488:	8c460008 	lw	a2,8(v0)
  40648c:	8c45000c 	lw	a1,12(v0)
  406490:	24420010 	addiu	v0,v0,16
  406494:	ac680000 	sw	t0,0(v1)
  406498:	ac670004 	sw	a3,4(v1)
  40649c:	ac660008 	sw	a2,8(v1)
  4064a0:	ac65000c 	sw	a1,12(v1)
  4064a4:	1444fff6 	bne	v0,a0,406480 <input_gpio_direction_set+0x7cc>
  4064a8:	24630010 	addiu	v1,v1,16
  4064ac:	0810179f 	j	405e7c <input_gpio_direction_set+0x1c8>
  4064b0:	94420000 	lhu	v0,0(v0)
  4064b4:	3c020041 	lui	v0,0x41
  4064b8:	2442c56c 	addiu	v0,v0,-14996
  4064bc:	27a30018 	addiu	v1,sp,24
  4064c0:	24440020 	addiu	a0,v0,32
  4064c4:	8c480000 	lw	t0,0(v0)
  4064c8:	8c470004 	lw	a3,4(v0)
  4064cc:	8c460008 	lw	a2,8(v0)
  4064d0:	8c45000c 	lw	a1,12(v0)
  4064d4:	24420010 	addiu	v0,v0,16
  4064d8:	ac680000 	sw	t0,0(v1)
  4064dc:	ac670004 	sw	a3,4(v1)
  4064e0:	ac660008 	sw	a2,8(v1)
  4064e4:	ac65000c 	sw	a1,12(v1)
  4064e8:	1444fff6 	bne	v0,a0,4064c4 <input_gpio_direction_set+0x810>
  4064ec:	24630010 	addiu	v1,v1,16
  4064f0:	0810179f 	j	405e7c <input_gpio_direction_set+0x1c8>
  4064f4:	94420000 	lhu	v0,0(v0)
  4064f8:	3c020041 	lui	v0,0x41
  4064fc:	2442c590 	addiu	v0,v0,-14960
  406500:	27a30018 	addiu	v1,sp,24
  406504:	24440020 	addiu	a0,v0,32
  406508:	8c480000 	lw	t0,0(v0)
  40650c:	8c470004 	lw	a3,4(v0)
  406510:	8c460008 	lw	a2,8(v0)
  406514:	8c45000c 	lw	a1,12(v0)
  406518:	24420010 	addiu	v0,v0,16
  40651c:	ac680000 	sw	t0,0(v1)
  406520:	ac670004 	sw	a3,4(v1)
  406524:	ac660008 	sw	a2,8(v1)
  406528:	ac65000c 	sw	a1,12(v1)
  40652c:	1444fff6 	bne	v0,a0,406508 <input_gpio_direction_set+0x854>
  406530:	24630010 	addiu	v1,v1,16
  406534:	0810179f 	j	405e7c <input_gpio_direction_set+0x1c8>
  406538:	94420000 	lhu	v0,0(v0)
  40653c:	3c020041 	lui	v0,0x41
  406540:	2442c5b4 	addiu	v0,v0,-14924
  406544:	27a30018 	addiu	v1,sp,24
  406548:	24440020 	addiu	a0,v0,32
  40654c:	8c480000 	lw	t0,0(v0)
  406550:	8c470004 	lw	a3,4(v0)
  406554:	8c460008 	lw	a2,8(v0)
  406558:	8c45000c 	lw	a1,12(v0)
  40655c:	24420010 	addiu	v0,v0,16
  406560:	ac680000 	sw	t0,0(v1)
  406564:	ac670004 	sw	a3,4(v1)
  406568:	ac660008 	sw	a2,8(v1)
  40656c:	ac65000c 	sw	a1,12(v1)
  406570:	1444fff6 	bne	v0,a0,40654c <input_gpio_direction_set+0x898>
  406574:	24630010 	addiu	v1,v1,16
  406578:	0810179f 	j	405e7c <input_gpio_direction_set+0x1c8>
  40657c:	94420000 	lhu	v0,0(v0)
  406580:	3c020041 	lui	v0,0x41
  406584:	2442c5d8 	addiu	v0,v0,-14888
  406588:	27a30018 	addiu	v1,sp,24
  40658c:	24440020 	addiu	a0,v0,32
  406590:	8c480000 	lw	t0,0(v0)
  406594:	8c470004 	lw	a3,4(v0)
  406598:	8c460008 	lw	a2,8(v0)
  40659c:	8c45000c 	lw	a1,12(v0)
  4065a0:	24420010 	addiu	v0,v0,16
  4065a4:	ac680000 	sw	t0,0(v1)
  4065a8:	ac670004 	sw	a3,4(v1)
  4065ac:	ac660008 	sw	a2,8(v1)
  4065b0:	ac65000c 	sw	a1,12(v1)
  4065b4:	1444fff6 	bne	v0,a0,406590 <input_gpio_direction_set+0x8dc>
  4065b8:	24630010 	addiu	v1,v1,16
  4065bc:	0810179f 	j	405e7c <input_gpio_direction_set+0x1c8>
  4065c0:	94420000 	lhu	v0,0(v0)
  4065c4:	02601021 	move	v0,s3
  4065c8:	27a30018 	addiu	v1,sp,24
  4065cc:	8c470000 	lw	a3,0(v0)
  4065d0:	8c460004 	lw	a2,4(v0)
  4065d4:	8c450008 	lw	a1,8(v0)
  4065d8:	8c44000c 	lw	a0,12(v0)
  4065dc:	24420010 	addiu	v0,v0,16
  4065e0:	ac670000 	sw	a3,0(v1)
  4065e4:	ac660004 	sw	a2,4(v1)
  4065e8:	ac650008 	sw	a1,8(v1)
  4065ec:	ac64000c 	sw	a0,12(v1)
  4065f0:	1456fff6 	bne	v0,s6,4065cc <input_gpio_direction_set+0x918>
  4065f4:	24630010 	addiu	v1,v1,16
  4065f8:	96c20000 	lhu	v0,0(s6)
  4065fc:	081017a0 	j	405e80 <input_gpio_direction_set+0x1cc>
  406600:	a4620000 	sh	v0,0(v1)

00406604 <input_gpio_value_init>:
  406604:	27bdff70 	addiu	sp,sp,-144
  406608:	afb60080 	sw	s6,128(sp)
  40660c:	3c160041 	lui	s6,0x41
  406610:	8ec2c9f0 	lw	v0,-13840(s6)
  406614:	afb5007c 	sw	s5,124(sp)
  406618:	afb40078 	sw	s4,120(sp)
  40661c:	3c1c0042 	lui	gp,0x42
  406620:	3c150041 	lui	s5,0x41
  406624:	3c140041 	lui	s4,0x41
  406628:	279c5520 	addiu	gp,gp,21792
  40662c:	afa2005c 	sw	v0,92(sp)
  406630:	8ea9c9d0 	lw	t1,-13872(s5)
  406634:	8e82c990 	lw	v0,-13936(s4)
  406638:	afb1006c 	sw	s1,108(sp)
  40663c:	8f918098 	lw	s1,-32616(gp)
  406640:	afbe0088 	sw	s8,136(sp)
  406644:	afb70084 	sw	s7,132(sp)
  406648:	afb30074 	sw	s3,116(sp)
  40664c:	afb00068 	sw	s0,104(sp)
  406650:	afbf008c 	sw	ra,140(sp)
  406654:	afb20070 	sw	s2,112(sp)
  406658:	afbc0010 	sw	gp,16(sp)
  40665c:	afa90060 	sw	t1,96(sp)
  406660:	afa20058 	sw	v0,88(sp)
  406664:	24130001 	li	s3,1
  406668:	00008021 	move	s0,zero
  40666c:	3c1e0041 	lui	s8,0x41
  406670:	3c170041 	lui	s7,0x41
  406674:	8f998184 	lw	t9,-32380(gp)
  406678:	27a40018 	addiu	a0,sp,24
  40667c:	00002821 	move	a1,zero
  406680:	0320f809 	jalr	t9
  406684:	24060040 	li	a2,64
  406688:	12000059 	beqz	s0,4067f0 <input_gpio_value_init+0x1ec>
  40668c:	8fbc0010 	lw	gp,16(sp)
  406690:	24020001 	li	v0,1
  406694:	1202008d 	beq	s0,v0,4068cc <input_gpio_value_init+0x2c8>
  406698:	3c030041 	lui	v1,0x41
  40669c:	24020002 	li	v0,2
  4066a0:	1202008d 	beq	s0,v0,4068d8 <input_gpio_value_init+0x2d4>
  4066a4:	3c030041 	lui	v1,0x41
  4066a8:	24020003 	li	v0,3
  4066ac:	1202008d 	beq	s0,v0,4068e4 <input_gpio_value_init+0x2e0>
  4066b0:	3c030041 	lui	v1,0x41
  4066b4:	24020004 	li	v0,4
  4066b8:	1202008d 	beq	s0,v0,4068f0 <input_gpio_value_init+0x2ec>
  4066bc:	3c030041 	lui	v1,0x41
  4066c0:	24020005 	li	v0,5
  4066c4:	1202008d 	beq	s0,v0,4068fc <input_gpio_value_init+0x2f8>
  4066c8:	3c030041 	lui	v1,0x41
  4066cc:	24020006 	li	v0,6
  4066d0:	1202008d 	beq	s0,v0,406908 <input_gpio_value_init+0x304>
  4066d4:	3c030041 	lui	v1,0x41
  4066d8:	24020007 	li	v0,7
  4066dc:	1202008d 	beq	s0,v0,406914 <input_gpio_value_init+0x310>
  4066e0:	3c030041 	lui	v1,0x41
  4066e4:	24020008 	li	v0,8
  4066e8:	1202008d 	beq	s0,v0,406920 <input_gpio_value_init+0x31c>
  4066ec:	3c030041 	lui	v1,0x41
  4066f0:	24020009 	li	v0,9
  4066f4:	1202008d 	beq	s0,v0,40692c <input_gpio_value_init+0x328>
  4066f8:	3c030041 	lui	v1,0x41
  4066fc:	2402000a 	li	v0,10
  406700:	1202008d 	beq	s0,v0,406938 <input_gpio_value_init+0x334>
  406704:	3c030041 	lui	v1,0x41
  406708:	2402000b 	li	v0,11
  40670c:	1202008d 	beq	s0,v0,406944 <input_gpio_value_init+0x340>
  406710:	3c030041 	lui	v1,0x41
  406714:	2402000c 	li	v0,12
  406718:	1202008d 	beq	s0,v0,406950 <input_gpio_value_init+0x34c>
  40671c:	3c030041 	lui	v1,0x41
  406720:	2402000d 	li	v0,13
  406724:	1202008d 	beq	s0,v0,40695c <input_gpio_value_init+0x358>
  406728:	3c030041 	lui	v1,0x41
  40672c:	2402000e 	li	v0,14
  406730:	1202008d 	beq	s0,v0,406968 <input_gpio_value_init+0x364>
  406734:	3c030041 	lui	v1,0x41
  406738:	2402000f 	li	v0,15
  40673c:	1202008d 	beq	s0,v0,406974 <input_gpio_value_init+0x370>
  406740:	3c030041 	lui	v1,0x41
  406744:	24020010 	li	v0,16
  406748:	1202008d 	beq	s0,v0,406980 <input_gpio_value_init+0x37c>
  40674c:	3c030041 	lui	v1,0x41
  406750:	24020011 	li	v0,17
  406754:	1202008d 	beq	s0,v0,40698c <input_gpio_value_init+0x388>
  406758:	3c030041 	lui	v1,0x41
  40675c:	24020012 	li	v0,18
  406760:	1202008d 	beq	s0,v0,406998 <input_gpio_value_init+0x394>
  406764:	3c030041 	lui	v1,0x41
  406768:	24020013 	li	v0,19
  40676c:	12020097 	beq	s0,v0,4069cc <input_gpio_value_init+0x3c8>
  406770:	3c030041 	lui	v1,0x41
  406774:	24020014 	li	v0,20
  406778:	12020097 	beq	s0,v0,4069d8 <input_gpio_value_init+0x3d4>
  40677c:	3c030041 	lui	v1,0x41
  406780:	24020015 	li	v0,21
  406784:	12020097 	beq	s0,v0,4069e4 <input_gpio_value_init+0x3e0>
  406788:	3c030041 	lui	v1,0x41
  40678c:	24020016 	li	v0,22
  406790:	12020097 	beq	s0,v0,4069f0 <input_gpio_value_init+0x3ec>
  406794:	3c030041 	lui	v1,0x41
  406798:	24020017 	li	v0,23
  40679c:	12020097 	beq	s0,v0,4069fc <input_gpio_value_init+0x3f8>
  4067a0:	26e2c970 	addiu	v0,s7,-13968
  4067a4:	24020018 	li	v0,24
  4067a8:	12020096 	beq	s0,v0,406a04 <input_gpio_value_init+0x400>
  4067ac:	2682c990 	addiu	v0,s4,-13936
  4067b0:	24020019 	li	v0,25
  4067b4:	1202009c 	beq	s0,v0,406a28 <input_gpio_value_init+0x424>
  4067b8:	27c2c9b0 	addiu	v0,s8,-13904
  4067bc:	2402001a 	li	v0,26
  4067c0:	12020078 	beq	s0,v0,4069a4 <input_gpio_value_init+0x3a0>
  4067c4:	00000000 	nop
  4067c8:	26c2c9f0 	addiu	v0,s6,-13840
  4067cc:	8c480004 	lw	t0,4(v0)
  4067d0:	8c470008 	lw	a3,8(v0)
  4067d4:	8c46000c 	lw	a2,12(v0)
  4067d8:	8c450010 	lw	a1,16(v0)
  4067dc:	8c440014 	lw	a0,20(v0)
  4067e0:	8c430018 	lw	v1,24(v0)
  4067e4:	8fa9005c 	lw	t1,92(sp)
  4067e8:	08101a06 	j	406818 <input_gpio_value_init+0x214>
  4067ec:	9442001c 	lhu	v0,28(v0)
  4067f0:	3c030041 	lui	v1,0x41
  4067f4:	8c69c690 	lw	t1,-14704(v1)
  4067f8:	2462c690 	addiu	v0,v1,-14704
  4067fc:	8c480004 	lw	t0,4(v0)
  406800:	8c470008 	lw	a3,8(v0)
  406804:	8c46000c 	lw	a2,12(v0)
  406808:	8c450010 	lw	a1,16(v0)
  40680c:	8c440014 	lw	a0,20(v0)
  406810:	8c430018 	lw	v1,24(v0)
  406814:	9442001c 	lhu	v0,28(v0)
  406818:	8f9981a4 	lw	t9,-32348(gp)
  40681c:	afa50028 	sw	a1,40(sp)
  406820:	afa4002c 	sw	a0,44(sp)
  406824:	afa90018 	sw	t1,24(sp)
  406828:	afa8001c 	sw	t0,28(sp)
  40682c:	afa70020 	sw	a3,32(sp)
  406830:	afa60024 	sw	a2,36(sp)
  406834:	afa30030 	sw	v1,48(sp)
  406838:	a7a20034 	sh	v0,52(sp)
  40683c:	27a40018 	addiu	a0,sp,24
  406840:	0320f809 	jalr	t9
  406844:	00002821 	move	a1,zero
  406848:	00409021 	move	s2,v0
  40684c:	8fbc0010 	lw	gp,16(sp)
  406850:	ae220000 	sw	v0,0(s1)
  406854:	2402ffff 	li	v0,-1
  406858:	12420016 	beq	s2,v0,4068b4 <input_gpio_value_init+0x2b0>
  40685c:	8f9981f8 	lw	t9,-32264(gp)
  406860:	26100001 	addiu	s0,s0,1
  406864:	2402001c 	li	v0,28
  406868:	26730001 	addiu	s3,s3,1
  40686c:	1602ff81 	bne	s0,v0,406674 <input_gpio_value_init+0x70>
  406870:	26310004 	addiu	s1,s1,4
  406874:	8f998144 	lw	t9,-32444(gp)
  406878:	0320f809 	jalr	t9
  40687c:	02402021 	move	a0,s2
  406880:	8fbf008c 	lw	ra,140(sp)
  406884:	8fbe0088 	lw	s8,136(sp)
  406888:	8fb70084 	lw	s7,132(sp)
  40688c:	8fb60080 	lw	s6,128(sp)
  406890:	8fb5007c 	lw	s5,124(sp)
  406894:	8fb40078 	lw	s4,120(sp)
  406898:	8fb30074 	lw	s3,116(sp)
  40689c:	8fb20070 	lw	s2,112(sp)
  4068a0:	8fb1006c 	lw	s1,108(sp)
  4068a4:	8fb00068 	lw	s0,104(sp)
  4068a8:	24020001 	li	v0,1
  4068ac:	03e00008 	jr	ra
  4068b0:	27bd0090 	addiu	sp,sp,144
  4068b4:	3c040041 	lui	a0,0x41
  4068b8:	2484ca10 	addiu	a0,a0,-13808
  4068bc:	0320f809 	jalr	t9
  4068c0:	02602821 	move	a1,s3
  4068c4:	08101a18 	j	406860 <input_gpio_value_init+0x25c>
  4068c8:	8fbc0010 	lw	gp,16(sp)
  4068cc:	2462c6b0 	addiu	v0,v1,-14672
  4068d0:	081019ff 	j	4067fc <input_gpio_value_init+0x1f8>
  4068d4:	8c69c6b0 	lw	t1,-14672(v1)
  4068d8:	2462c6d0 	addiu	v0,v1,-14640
  4068dc:	081019ff 	j	4067fc <input_gpio_value_init+0x1f8>
  4068e0:	8c69c6d0 	lw	t1,-14640(v1)
  4068e4:	2462c6f0 	addiu	v0,v1,-14608
  4068e8:	081019ff 	j	4067fc <input_gpio_value_init+0x1f8>
  4068ec:	8c69c6f0 	lw	t1,-14608(v1)
  4068f0:	2462c710 	addiu	v0,v1,-14576
  4068f4:	081019ff 	j	4067fc <input_gpio_value_init+0x1f8>
  4068f8:	8c69c710 	lw	t1,-14576(v1)
  4068fc:	2462c730 	addiu	v0,v1,-14544
  406900:	081019ff 	j	4067fc <input_gpio_value_init+0x1f8>
  406904:	8c69c730 	lw	t1,-14544(v1)
  406908:	2462c750 	addiu	v0,v1,-14512
  40690c:	081019ff 	j	4067fc <input_gpio_value_init+0x1f8>
  406910:	8c69c750 	lw	t1,-14512(v1)
  406914:	2462c770 	addiu	v0,v1,-14480
  406918:	081019ff 	j	4067fc <input_gpio_value_init+0x1f8>
  40691c:	8c69c770 	lw	t1,-14480(v1)
  406920:	2462c790 	addiu	v0,v1,-14448
  406924:	081019ff 	j	4067fc <input_gpio_value_init+0x1f8>
  406928:	8c69c790 	lw	t1,-14448(v1)
  40692c:	2462c7b0 	addiu	v0,v1,-14416
  406930:	081019ff 	j	4067fc <input_gpio_value_init+0x1f8>
  406934:	8c69c7b0 	lw	t1,-14416(v1)
  406938:	2462c7d0 	addiu	v0,v1,-14384
  40693c:	081019ff 	j	4067fc <input_gpio_value_init+0x1f8>
  406940:	8c69c7d0 	lw	t1,-14384(v1)
  406944:	2462c7f0 	addiu	v0,v1,-14352
  406948:	081019ff 	j	4067fc <input_gpio_value_init+0x1f8>
  40694c:	8c69c7f0 	lw	t1,-14352(v1)
  406950:	2462c810 	addiu	v0,v1,-14320
  406954:	081019ff 	j	4067fc <input_gpio_value_init+0x1f8>
  406958:	8c69c810 	lw	t1,-14320(v1)
  40695c:	2462c830 	addiu	v0,v1,-14288
  406960:	081019ff 	j	4067fc <input_gpio_value_init+0x1f8>
  406964:	8c69c830 	lw	t1,-14288(v1)
  406968:	2462c850 	addiu	v0,v1,-14256
  40696c:	081019ff 	j	4067fc <input_gpio_value_init+0x1f8>
  406970:	8c69c850 	lw	t1,-14256(v1)
  406974:	2462c870 	addiu	v0,v1,-14224
  406978:	081019ff 	j	4067fc <input_gpio_value_init+0x1f8>
  40697c:	8c69c870 	lw	t1,-14224(v1)
  406980:	2462c890 	addiu	v0,v1,-14192
  406984:	081019ff 	j	4067fc <input_gpio_value_init+0x1f8>
  406988:	8c69c890 	lw	t1,-14192(v1)
  40698c:	2462c8b0 	addiu	v0,v1,-14160
  406990:	081019ff 	j	4067fc <input_gpio_value_init+0x1f8>
  406994:	8c69c8b0 	lw	t1,-14160(v1)
  406998:	2462c8d0 	addiu	v0,v1,-14128
  40699c:	081019ff 	j	4067fc <input_gpio_value_init+0x1f8>
  4069a0:	8c69c8d0 	lw	t1,-14128(v1)
  4069a4:	26a2c9d0 	addiu	v0,s5,-13872
  4069a8:	8c480004 	lw	t0,4(v0)
  4069ac:	8c470008 	lw	a3,8(v0)
  4069b0:	8c46000c 	lw	a2,12(v0)
  4069b4:	8c450010 	lw	a1,16(v0)
  4069b8:	8c440014 	lw	a0,20(v0)
  4069bc:	8c430018 	lw	v1,24(v0)
  4069c0:	8fa90060 	lw	t1,96(sp)
  4069c4:	08101a06 	j	406818 <input_gpio_value_init+0x214>
  4069c8:	9442001c 	lhu	v0,28(v0)
  4069cc:	2462c8f0 	addiu	v0,v1,-14096
  4069d0:	081019ff 	j	4067fc <input_gpio_value_init+0x1f8>
  4069d4:	8c69c8f0 	lw	t1,-14096(v1)
  4069d8:	2462c910 	addiu	v0,v1,-14064
  4069dc:	081019ff 	j	4067fc <input_gpio_value_init+0x1f8>
  4069e0:	8c69c910 	lw	t1,-14064(v1)
  4069e4:	2462c930 	addiu	v0,v1,-14032
  4069e8:	081019ff 	j	4067fc <input_gpio_value_init+0x1f8>
  4069ec:	8c69c930 	lw	t1,-14032(v1)
  4069f0:	2462c950 	addiu	v0,v1,-14000
  4069f4:	081019ff 	j	4067fc <input_gpio_value_init+0x1f8>
  4069f8:	8c69c950 	lw	t1,-14000(v1)
  4069fc:	081019ff 	j	4067fc <input_gpio_value_init+0x1f8>
  406a00:	8ee9c970 	lw	t1,-13968(s7)
  406a04:	8c480004 	lw	t0,4(v0)
  406a08:	8c470008 	lw	a3,8(v0)
  406a0c:	8c46000c 	lw	a2,12(v0)
  406a10:	8c450010 	lw	a1,16(v0)
  406a14:	8c440014 	lw	a0,20(v0)
  406a18:	8c430018 	lw	v1,24(v0)
  406a1c:	8fa90058 	lw	t1,88(sp)
  406a20:	08101a06 	j	406818 <input_gpio_value_init+0x214>
  406a24:	9442001c 	lhu	v0,28(v0)
  406a28:	081019ff 	j	4067fc <input_gpio_value_init+0x1f8>
  406a2c:	8fc9c9b0 	lw	t1,-13904(s8)

00406a30 <gpio_input_init>:
  406a30:	3c1c0042 	lui	gp,0x42
  406a34:	27bdffe0 	addiu	sp,sp,-32
  406a38:	279c5520 	addiu	gp,gp,21792
  406a3c:	afbf001c 	sw	ra,28(sp)
  406a40:	afbc0010 	sw	gp,16(sp)
  406a44:	0c10164c 	jal	405930 <input_gpio_export>
  406a48:	00000000 	nop
  406a4c:	04400014 	bltz	v0,406aa0 <gpio_input_init+0x70>
  406a50:	8fbf001c 	lw	ra,28(sp)
  406a54:	0c10172d 	jal	405cb4 <input_gpio_direction_set>
  406a58:	00000000 	nop
  406a5c:	04400010 	bltz	v0,406aa0 <gpio_input_init+0x70>
  406a60:	8fbf001c 	lw	ra,28(sp)
  406a64:	0c101981 	jal	406604 <input_gpio_value_init>
  406a68:	00000000 	nop
  406a6c:	0440000b 	bltz	v0,406a9c <gpio_input_init+0x6c>
  406a70:	8fbc0010 	lw	gp,16(sp)
  406a74:	8f998188 	lw	t9,-32376(gp)
  406a78:	8f84809c 	lw	a0,-32612(gp)
  406a7c:	00002821 	move	a1,zero
  406a80:	0320f809 	jalr	t9
  406a84:	24060001 	li	a2,1
  406a88:	04400004 	bltz	v0,406a9c <gpio_input_init+0x6c>
  406a8c:	8fbf001c 	lw	ra,28(sp)
  406a90:	24020001 	li	v0,1
  406a94:	03e00008 	jr	ra
  406a98:	27bd0020 	addiu	sp,sp,32
  406a9c:	8fbf001c 	lw	ra,28(sp)
  406aa0:	2402ffff 	li	v0,-1
  406aa4:	03e00008 	jr	ra
  406aa8:	27bd0020 	addiu	sp,sp,32

00406aac <StrToHex>:
  406aac:	10800022 	beqz	a0,406b38 <StrToHex+0x8c>
  406ab0:	00001021 	move	v0,zero
  406ab4:	80830000 	lb	v1,0(a0)
  406ab8:	10600022 	beqz	v1,406b44 <StrToHex+0x98>
  406abc:	00000000 	nop
  406ac0:	24020020 	li	v0,32
  406ac4:	1062001e 	beq	v1,v0,406b40 <StrToHex+0x94>
  406ac8:	00000000 	nop
  406acc:	08101abb 	j	406aec <StrToHex+0x40>
  406ad0:	00001021 	move	v0,zero
  406ad4:	30a500ff 	andi	a1,a1,0xff
  406ad8:	24840001 	addiu	a0,a0,1
  406adc:	80830000 	lb	v1,0(a0)
  406ae0:	00021100 	sll	v0,v0,0x4
  406ae4:	10600014 	beqz	v1,406b38 <StrToHex+0x8c>
  406ae8:	00a21025 	or	v0,a1,v0
  406aec:	306300ff 	andi	v1,v1,0xff
  406af0:	2465ffd0 	addiu	a1,v1,-48
  406af4:	30a500ff 	andi	a1,a1,0xff
  406af8:	2467ff9f 	addiu	a3,v1,-97
  406afc:	2ca6000a 	sltiu	a2,a1,10
  406b00:	14c0fff5 	bnez	a2,406ad8 <StrToHex+0x2c>
  406b04:	2ce70006 	sltiu	a3,a3,6
  406b08:	2466ffbf 	addiu	a2,v1,-65
  406b0c:	2465ffa9 	addiu	a1,v1,-87
  406b10:	2cc60006 	sltiu	a2,a2,6
  406b14:	14e0ffef 	bnez	a3,406ad4 <StrToHex+0x28>
  406b18:	2463ffc9 	addiu	v1,v1,-55
  406b1c:	10c00006 	beqz	a2,406b38 <StrToHex+0x8c>
  406b20:	24840001 	addiu	a0,a0,1
  406b24:	306500ff 	andi	a1,v1,0xff
  406b28:	80830000 	lb	v1,0(a0)
  406b2c:	00021100 	sll	v0,v0,0x4
  406b30:	1460ffee 	bnez	v1,406aec <StrToHex+0x40>
  406b34:	00a21025 	or	v0,a1,v0
  406b38:	03e00008 	jr	ra
  406b3c:	00000000 	nop
  406b40:	00001021 	move	v0,zero
  406b44:	03e00008 	jr	ra
  406b48:	00000000 	nop

00406b4c <input_gpio_vaule_read>:
  406b4c:	3c1c0042 	lui	gp,0x42
  406b50:	279c5520 	addiu	gp,gp,21792
  406b54:	27bdffd0 	addiu	sp,sp,-48
  406b58:	8f9981dc 	lw	t9,-32292(gp)
  406b5c:	00003021 	move	a2,zero
  406b60:	afbf002c 	sw	ra,44(sp)
  406b64:	afb10028 	sw	s1,40(sp)
  406b68:	afb00024 	sw	s0,36(sp)
  406b6c:	afbc0010 	sw	gp,16(sp)
  406b70:	00a08021 	move	s0,a1
  406b74:	afa00018 	sw	zero,24(sp)
  406b78:	00002821 	move	a1,zero
  406b7c:	afa0001c 	sw	zero,28(sp)
  406b80:	0320f809 	jalr	t9
  406b84:	00808821 	move	s1,a0
  406b88:	8fbc0010 	lw	gp,16(sp)
  406b8c:	02202021 	move	a0,s1
  406b90:	8f998200 	lw	t9,-32256(gp)
  406b94:	27a50018 	addiu	a1,sp,24
  406b98:	0320f809 	jalr	t9
  406b9c:	24060002 	li	a2,2
  406ba0:	2403ffff 	li	v1,-1
  406ba4:	10430028 	beq	v0,v1,406c48 <input_gpio_vaule_read+0xfc>
  406ba8:	2402ffff 	li	v0,-1
  406bac:	83a20018 	lb	v0,24(sp)
  406bb0:	1040002a 	beqz	v0,406c5c <input_gpio_vaule_read+0x110>
  406bb4:	00000000 	nop
  406bb8:	24030020 	li	v1,32
  406bbc:	10430027 	beq	v0,v1,406c5c <input_gpio_vaule_read+0x110>
  406bc0:	00000000 	nop
  406bc4:	27a40019 	addiu	a0,sp,25
  406bc8:	08101afa 	j	406be8 <input_gpio_vaule_read+0x9c>
  406bcc:	00003021 	move	a2,zero
  406bd0:	306300ff 	andi	v1,v1,0xff
  406bd4:	24840001 	addiu	a0,a0,1
  406bd8:	8082ffff 	lb	v0,-1(a0)
  406bdc:	00063100 	sll	a2,a2,0x4
  406be0:	10400015 	beqz	v0,406c38 <input_gpio_vaule_read+0xec>
  406be4:	00663025 	or	a2,v1,a2
  406be8:	304200ff 	andi	v0,v0,0xff
  406bec:	2443ffd0 	addiu	v1,v0,-48
  406bf0:	306300ff 	andi	v1,v1,0xff
  406bf4:	2448ff9f 	addiu	t0,v0,-97
  406bf8:	2c67000a 	sltiu	a3,v1,10
  406bfc:	14e0fff5 	bnez	a3,406bd4 <input_gpio_vaule_read+0x88>
  406c00:	2d080006 	sltiu	t0,t0,6
  406c04:	2445ffbf 	addiu	a1,v0,-65
  406c08:	2443ffa9 	addiu	v1,v0,-87
  406c0c:	2ca50006 	sltiu	a1,a1,6
  406c10:	1500ffef 	bnez	t0,406bd0 <input_gpio_vaule_read+0x84>
  406c14:	2442ffc9 	addiu	v0,v0,-55
  406c18:	10a00007 	beqz	a1,406c38 <input_gpio_vaule_read+0xec>
  406c1c:	00000000 	nop
  406c20:	24840001 	addiu	a0,a0,1
  406c24:	304300ff 	andi	v1,v0,0xff
  406c28:	8082ffff 	lb	v0,-1(a0)
  406c2c:	00063100 	sll	a2,a2,0x4
  406c30:	1440ffed 	bnez	v0,406be8 <input_gpio_vaule_read+0x9c>
  406c34:	00663025 	or	a2,v1,a2
  406c38:	00063600 	sll	a2,a2,0x18
  406c3c:	00063603 	sra	a2,a2,0x18
  406c40:	a2060000 	sb	a2,0(s0)
  406c44:	24020001 	li	v0,1
  406c48:	8fbf002c 	lw	ra,44(sp)
  406c4c:	8fb10028 	lw	s1,40(sp)
  406c50:	8fb00024 	lw	s0,36(sp)
  406c54:	03e00008 	jr	ra
  406c58:	27bd0030 	addiu	sp,sp,48
  406c5c:	08101b10 	j	406c40 <input_gpio_vaule_read+0xf4>
  406c60:	00003021 	move	a2,zero

00406c64 <gpio_input_state_get>:
  406c64:	3c1c0042 	lui	gp,0x42
  406c68:	279c5520 	addiu	gp,gp,21792
  406c6c:	8f8480a0 	lw	a0,-32608(gp)
  406c70:	3c020101 	lui	v0,0x101
  406c74:	27bdff38 	addiu	sp,sp,-200
  406c78:	24420101 	addiu	v0,v0,257
  406c7c:	8f8380a4 	lw	v1,-32604(gp)
  406c80:	afbe00c0 	sw	s8,192(sp)
  406c84:	afb300ac 	sw	s3,172(sp)
  406c88:	afbf00c4 	sw	ra,196(sp)
  406c8c:	afb700bc 	sw	s7,188(sp)
  406c90:	afb600b8 	sw	s6,184(sp)
  406c94:	afb500b4 	sw	s5,180(sp)
  406c98:	afb400b0 	sw	s4,176(sp)
  406c9c:	afb200a8 	sw	s2,168(sp)
  406ca0:	afb100a4 	sw	s1,164(sp)
  406ca4:	afb000a0 	sw	s0,160(sp)
  406ca8:	afbc0010 	sw	gp,16(sp)
  406cac:	8f8580a8 	lw	a1,-32600(gp)
  406cb0:	ac820000 	sw	v0,0(a0)
  406cb4:	ac820004 	sw	v0,4(a0)
  406cb8:	ac820008 	sw	v0,8(a0)
  406cbc:	ac82000c 	sw	v0,12(a0)
  406cc0:	ac820010 	sw	v0,16(a0)
  406cc4:	ac820014 	sw	v0,20(a0)
  406cc8:	ac820018 	sw	v0,24(a0)
  406ccc:	ac82001c 	sw	v0,28(a0)
  406cd0:	8f828098 	lw	v0,-32616(gp)
  406cd4:	27b30034 	addiu	s3,sp,52
  406cd8:	ac600000 	sw	zero,0(v1)
  406cdc:	ac600004 	sw	zero,4(v1)
  406ce0:	ac600008 	sw	zero,8(v1)
  406ce4:	a460000c 	sh	zero,12(v1)
  406ce8:	a060000e 	sb	zero,14(v1)
  406cec:	aca00000 	sw	zero,0(a1)
  406cf0:	aca00004 	sw	zero,4(a1)
  406cf4:	aca00008 	sw	zero,8(a1)
  406cf8:	aca0000c 	sw	zero,12(a1)
  406cfc:	a4a00010 	sh	zero,16(a1)
  406d00:	afa00034 	sw	zero,52(sp)
  406d04:	ae600004 	sw	zero,4(s3)
  406d08:	ae600008 	sw	zero,8(s3)
  406d0c:	245e0070 	addiu	s8,v0,112
  406d10:	ae60000c 	sw	zero,12(s3)
  406d14:	ae600010 	sw	zero,16(s3)
  406d18:	ae600014 	sw	zero,20(s3)
  406d1c:	ae600018 	sw	zero,24(s3)
  406d20:	afa00018 	sw	zero,24(sp)
  406d24:	afa0001c 	sw	zero,28(sp)
  406d28:	afa00020 	sw	zero,32(sp)
  406d2c:	afa00024 	sw	zero,36(sp)
  406d30:	afa00028 	sw	zero,40(sp)
  406d34:	afa0002c 	sw	zero,44(sp)
  406d38:	afa00030 	sw	zero,48(sp)
  406d3c:	00008821 	move	s1,zero
  406d40:	2417ffff 	li	s7,-1
  406d44:	8f9981c4 	lw	t9,-32316(gp)
  406d48:	3c04000f 	lui	a0,0xf
  406d4c:	8f948098 	lw	s4,-32616(gp)
  406d50:	8f9680a0 	lw	s6,-32608(gp)
  406d54:	0320f809 	jalr	t9
  406d58:	34844240 	ori	a0,a0,0x4240
  406d5c:	8fbc0010 	lw	gp,16(sp)
  406d60:	02608021 	move	s0,s3
  406d64:	0260a821 	move	s5,s3
  406d68:	8e920000 	lw	s2,0(s4)
  406d6c:	8f9981dc 	lw	t9,-32292(gp)
  406d70:	02402021 	move	a0,s2
  406d74:	00002821 	move	a1,zero
  406d78:	00003021 	move	a2,zero
  406d7c:	afa00050 	sw	zero,80(sp)
  406d80:	0320f809 	jalr	t9
  406d84:	afa00054 	sw	zero,84(sp)
  406d88:	8fbc0010 	lw	gp,16(sp)
  406d8c:	02402021 	move	a0,s2
  406d90:	8f998200 	lw	t9,-32256(gp)
  406d94:	27a50050 	addiu	a1,sp,80
  406d98:	0320f809 	jalr	t9
  406d9c:	24060002 	li	a2,2
  406da0:	10570115 	beq	v0,s7,4071f8 <gpio_input_state_get+0x594>
  406da4:	8fbc0010 	lw	gp,16(sp)
  406da8:	83a20050 	lb	v0,80(sp)
  406dac:	144000ed 	bnez	v0,407164 <gpio_input_state_get+0x500>
  406db0:	00002821 	move	a1,zero
  406db4:	a2c20000 	sb	v0,0(s6)
  406db8:	26940004 	addiu	s4,s4,4
  406dbc:	a2a50000 	sb	a1,0(s5)
  406dc0:	26d60001 	addiu	s6,s6,1
  406dc4:	169effe8 	bne	s4,s8,406d68 <gpio_input_state_get+0x104>
  406dc8:	26b50001 	addiu	s5,s5,1
  406dcc:	8f8780a0 	lw	a3,-32608(gp)
  406dd0:	80ed0001 	lb	t5,1(a3)
  406dd4:	80e30004 	lb	v1,4(a3)
  406dd8:	80e60005 	lb	a2,5(a3)
  406ddc:	afad0060 	sw	t5,96(sp)
  406de0:	8f8d80a0 	lw	t5,-32608(gp)
  406de4:	80e20002 	lb	v0,2(a3)
  406de8:	80e50000 	lb	a1,0(a3)
  406dec:	80e40003 	lb	a0,3(a3)
  406df0:	afa30068 	sw	v1,104(sp)
  406df4:	afa6006c 	sw	a2,108(sp)
  406df8:	80e30007 	lb	v1,7(a3)
  406dfc:	8f8680a0 	lw	a2,-32608(gp)
  406e00:	80e70008 	lb	a3,8(a3)
  406e04:	81ad0009 	lb	t5,9(t5)
  406e08:	afa20064 	sw	v0,100(sp)
  406e0c:	afa70070 	sw	a3,112(sp)
  406e10:	afad0074 	sw	t5,116(sp)
  406e14:	80c7000b 	lb	a3,11(a2)
  406e18:	80cd000c 	lb	t5,12(a2)
  406e1c:	80c2000a 	lb	v0,10(a2)
  406e20:	80c6000e 	lb	a2,14(a2)
  406e24:	afa70078 	sw	a3,120(sp)
  406e28:	afa60058 	sw	a2,88(sp)
  406e2c:	8f8780a0 	lw	a3,-32608(gp)
  406e30:	8f8680a0 	lw	a2,-32608(gp)
  406e34:	80e7000f 	lb	a3,15(a3)
  406e38:	80c60011 	lb	a2,17(a2)
  406e3c:	afa70080 	sw	a3,128(sp)
  406e40:	afa6005c 	sw	a2,92(sp)
  406e44:	8f8780a0 	lw	a3,-32608(gp)
  406e48:	8fa60064 	lw	a2,100(sp)
  406e4c:	80e70012 	lb	a3,18(a3)
  406e50:	2cd80001 	sltiu	t8,a2,1
  406e54:	8fa60070 	lw	a2,112(sp)
  406e58:	afad007c 	sw	t5,124(sp)
  406e5c:	8f8d80a0 	lw	t5,-32608(gp)
  406e60:	afa70088 	sw	a3,136(sp)
  406e64:	2ccf0001 	sltiu	t7,a2,1
  406e68:	8fa70068 	lw	a3,104(sp)
  406e6c:	8fa60078 	lw	a2,120(sp)
  406e70:	81ad0010 	lb	t5,16(t5)
  406e74:	2cf50001 	sltiu	s5,a3,1
  406e78:	2ccc0001 	sltiu	t4,a2,1
  406e7c:	8fa70074 	lw	a3,116(sp)
  406e80:	8fa60058 	lw	a2,88(sp)
  406e84:	afad0084 	sw	t5,132(sp)
  406e88:	2cee0001 	sltiu	t6,a3,1
  406e8c:	2cca0001 	sltiu	t2,a2,1
  406e90:	8fa7007c 	lw	a3,124(sp)
  406e94:	8fa60084 	lw	a2,132(sp)
  406e98:	2ceb0001 	sltiu	t3,a3,1
  406e9c:	2cc80001 	sltiu	t0,a2,1
  406ea0:	8fa70080 	lw	a3,128(sp)
  406ea4:	8fa6005c 	lw	a2,92(sp)
  406ea8:	8fad0060 	lw	t5,96(sp)
  406eac:	2ce90001 	sltiu	t1,a3,1
  406eb0:	2cc70001 	sltiu	a3,a2,1
  406eb4:	8fa60088 	lw	a2,136(sp)
  406eb8:	2db90001 	sltiu	t9,t5,1
  406ebc:	2cc60001 	sltiu	a2,a2,1
  406ec0:	8fad006c 	lw	t5,108(sp)
  406ec4:	afa6008c 	sw	a2,140(sp)
  406ec8:	afa70094 	sw	a3,148(sp)
  406ecc:	8f8780a8 	lw	a3,-32600(gp)
  406ed0:	2db40001 	sltiu	s4,t5,1
  406ed4:	afa90090 	sw	t1,144(sp)
  406ed8:	2c4d0001 	sltiu	t5,v0,1
  406edc:	a0ed0009 	sb	t5,9(a3)
  406ee0:	afad0098 	sw	t5,152(sp)
  406ee4:	8fad0090 	lw	t5,144(sp)
  406ee8:	8fa60094 	lw	a2,148(sp)
  406eec:	a0ed000d 	sb	t5,13(a3)
  406ef0:	8fad008c 	lw	t5,140(sp)
  406ef4:	2cbf0001 	sltiu	ra,a1,1
  406ef8:	2c960001 	sltiu	s6,a0,1
  406efc:	2c720001 	sltiu	s2,v1,1
  406f00:	a0e8000e 	sb	t0,14(a3)
  406f04:	a0e6000f 	sb	a2,15(a3)
  406f08:	a0ed0010 	sb	t5,16(a3)
  406f0c:	a0ff0000 	sb	ra,0(a3)
  406f10:	a0f90001 	sb	t9,1(a3)
  406f14:	a0f80002 	sb	t8,2(a3)
  406f18:	a0f60003 	sb	s6,3(a3)
  406f1c:	a0f50004 	sb	s5,4(a3)
  406f20:	a0f40005 	sb	s4,5(a3)
  406f24:	a0f20006 	sb	s2,6(a3)
  406f28:	a0ef0007 	sb	t7,7(a3)
  406f2c:	a0ee0008 	sb	t6,8(a3)
  406f30:	a0ec000a 	sb	t4,10(a3)
  406f34:	a0eb000b 	sb	t3,11(a3)
  406f38:	a0ea000c 	sb	t2,12(a3)
  406f3c:	8f8780a0 	lw	a3,-32608(gp)
  406f40:	8f8d80a8 	lw	t5,-32600(gp)
  406f44:	80e60013 	lb	a2,19(a3)
  406f48:	01004821 	move	t1,t0
  406f4c:	24070001 	li	a3,1
  406f50:	2cc80001 	sltiu	t0,a2,1
  406f54:	10a700f1 	beq	a1,a3,40731c <gpio_input_state_get+0x6b8>
  406f58:	a1a80011 	sb	t0,17(t5)
  406f5c:	13e0000c 	beqz	ra,406f90 <gpio_input_state_get+0x32c>
  406f60:	8fad0060 	lw	t5,96(sp)
  406f64:	11a700fa 	beq	t5,a3,407350 <gpio_input_state_get+0x6ec>
  406f68:	00000000 	nop
  406f6c:	13200008 	beqz	t9,406f90 <gpio_input_state_get+0x32c>
  406f70:	8fad0064 	lw	t5,100(sp)
  406f74:	11a7015b 	beq	t5,a3,4074e4 <gpio_input_state_get+0x880>
  406f78:	8f8780ac 	lw	a3,-32596(gp)
  406f7c:	13000005 	beqz	t8,406f94 <gpio_input_state_get+0x330>
  406f80:	24050001 	li	a1,1
  406f84:	24050007 	li	a1,7
  406f88:	8f8780ac 	lw	a3,-32596(gp)
  406f8c:	a4e5000c 	sh	a1,12(a3)
  406f90:	24050001 	li	a1,1
  406f94:	108500b8 	beq	a0,a1,407278 <gpio_input_state_get+0x614>
  406f98:	8fad0068 	lw	t5,104(sp)
  406f9c:	12c0000c 	beqz	s6,406fd0 <gpio_input_state_get+0x36c>
  406fa0:	8fa70068 	lw	a3,104(sp)
  406fa4:	10e50104 	beq	a3,a1,4073b8 <gpio_input_state_get+0x754>
  406fa8:	8fad006c 	lw	t5,108(sp)
  406fac:	12a00009 	beqz	s5,406fd4 <gpio_input_state_get+0x370>
  406fb0:	24040001 	li	a0,1
  406fb4:	11a5014e 	beq	t5,a1,4074f0 <gpio_input_state_get+0x88c>
  406fb8:	24040003 	li	a0,3
  406fbc:	12800005 	beqz	s4,406fd4 <gpio_input_state_get+0x370>
  406fc0:	24040001 	li	a0,1
  406fc4:	8f8780ac 	lw	a3,-32596(gp)
  406fc8:	24040007 	li	a0,7
  406fcc:	a4e4000e 	sh	a0,14(a3)
  406fd0:	24040001 	li	a0,1
  406fd4:	106400b6 	beq	v1,a0,4072b0 <gpio_input_state_get+0x64c>
  406fd8:	8fad0070 	lw	t5,112(sp)
  406fdc:	1240000d 	beqz	s2,407014 <gpio_input_state_get+0x3b0>
  406fe0:	00000000 	nop
  406fe4:	8fa50070 	lw	a1,112(sp)
  406fe8:	10a400e2 	beq	a1,a0,407374 <gpio_input_state_get+0x710>
  406fec:	8fa70074 	lw	a3,116(sp)
  406ff0:	11e00008 	beqz	t7,407014 <gpio_input_state_get+0x3b0>
  406ff4:	00000000 	nop
  406ff8:	10e40149 	beq	a3,a0,407520 <gpio_input_state_get+0x8bc>
  406ffc:	8f8d80ac 	lw	t5,-32596(gp)
  407000:	11c00005 	beqz	t6,407018 <gpio_input_state_get+0x3b4>
  407004:	24030001 	li	v1,1
  407008:	8f8d80ac 	lw	t5,-32596(gp)
  40700c:	24030007 	li	v1,7
  407010:	a5a30010 	sh	v1,16(t5)
  407014:	24030001 	li	v1,1
  407018:	104300b3 	beq	v0,v1,4072e8 <gpio_input_state_get+0x684>
  40701c:	8fa70098 	lw	a3,152(sp)
  407020:	10e0000c 	beqz	a3,407054 <gpio_input_state_get+0x3f0>
  407024:	8fad0078 	lw	t5,120(sp)
  407028:	11a300da 	beq	t5,v1,407394 <gpio_input_state_get+0x730>
  40702c:	00000000 	nop
  407030:	11800008 	beqz	t4,407054 <gpio_input_state_get+0x3f0>
  407034:	8fa7007c 	lw	a3,124(sp)
  407038:	10e30136 	beq	a3,v1,407514 <gpio_input_state_get+0x8b0>
  40703c:	8f8d80ac 	lw	t5,-32596(gp)
  407040:	11600005 	beqz	t3,407058 <gpio_input_state_get+0x3f4>
  407044:	8fad0058 	lw	t5,88(sp)
  407048:	8f8780ac 	lw	a3,-32596(gp)
  40704c:	24020007 	li	v0,7
  407050:	a4e20012 	sh	v0,18(a3)
  407054:	8fad0058 	lw	t5,88(sp)
  407058:	24020001 	li	v0,1
  40705c:	11a20076 	beq	t5,v0,407238 <gpio_input_state_get+0x5d4>
  407060:	00000000 	nop
  407064:	1140000f 	beqz	t2,4070a4 <gpio_input_state_get+0x440>
  407068:	8fa3005c 	lw	v1,92(sp)
  40706c:	8fa50080 	lw	a1,128(sp)
  407070:	10a200d9 	beq	a1,v0,4073d8 <gpio_input_state_get+0x774>
  407074:	8fa70090 	lw	a3,144(sp)
  407078:	10e0000a 	beqz	a3,4070a4 <gpio_input_state_get+0x440>
  40707c:	8fad0084 	lw	t5,132(sp)
  407080:	11a20121 	beq	t5,v0,407508 <gpio_input_state_get+0x8a4>
  407084:	8f8380ac 	lw	v1,-32596(gp)
  407088:	11200006 	beqz	t1,4070a4 <gpio_input_state_get+0x440>
  40708c:	8fa3005c 	lw	v1,92(sp)
  407090:	8f8d80ac 	lw	t5,-32596(gp)
  407094:	24020007 	li	v0,7
  407098:	a5a20014 	sh	v0,20(t5)
  40709c:	8fa3005c 	lw	v1,92(sp)
  4070a0:	24020001 	li	v0,1
  4070a4:	10620056 	beq	v1,v0,407200 <gpio_input_state_get+0x59c>
  4070a8:	8fa70094 	lw	a3,148(sp)
  4070ac:	10e0000c 	beqz	a3,4070e0 <gpio_input_state_get+0x47c>
  4070b0:	8fad0088 	lw	t5,136(sp)
  4070b4:	11a200d1 	beq	t5,v0,4073fc <gpio_input_state_get+0x798>
  4070b8:	8fa7008c 	lw	a3,140(sp)
  4070bc:	10e00008 	beqz	a3,4070e0 <gpio_input_state_get+0x47c>
  4070c0:	00000000 	nop
  4070c4:	10c2010d 	beq	a2,v0,4074fc <gpio_input_state_get+0x898>
  4070c8:	8f8d80ac 	lw	t5,-32596(gp)
  4070cc:	11000005 	beqz	t0,4070e4 <gpio_input_state_get+0x480>
  4070d0:	8f8780a0 	lw	a3,-32608(gp)
  4070d4:	8f8680ac 	lw	a2,-32596(gp)
  4070d8:	24020007 	li	v0,7
  4070dc:	a4c20016 	sh	v0,22(a2)
  4070e0:	8f8780a0 	lw	a3,-32608(gp)
  4070e4:	8f8d80b0 	lw	t5,-32592(gp)
  4070e8:	80e30006 	lb	v1,6(a3)
  4070ec:	80e2000d 	lb	v0,13(a3)
  4070f0:	38630001 	xori	v1,v1,0x1
  4070f4:	38420001 	xori	v0,v0,0x1
  4070f8:	2c420001 	sltiu	v0,v0,1
  4070fc:	2c630001 	sltiu	v1,v1,1
  407100:	a1a20008 	sb	v0,8(t5)
  407104:	a1a30007 	sb	v1,7(t5)
  407108:	27a20018 	addiu	v0,sp,24
  40710c:	92030000 	lbu	v1,0(s0)
  407110:	90440000 	lbu	a0,0(v0)
  407114:	10830003 	beq	a0,v1,407124 <gpio_input_state_get+0x4c0>
  407118:	26100001 	addiu	s0,s0,1
  40711c:	a0430000 	sb	v1,0(v0)
  407120:	24110001 	li	s1,1
  407124:	24420001 	addiu	v0,v0,1
  407128:	1662fff8 	bne	s3,v0,40710c <gpio_input_state_get+0x4a8>
  40712c:	00000000 	nop
  407130:	1220ff05 	beqz	s1,406d48 <gpio_input_state_get+0xe4>
  407134:	8f9981c4 	lw	t9,-32316(gp)
  407138:	8f9981b4 	lw	t9,-32332(gp)
  40713c:	3c020041 	lui	v0,0x41
  407140:	0320f809 	jalr	t9
  407144:	2444ca34 	addiu	a0,v0,-13772
  407148:	8fbc0010 	lw	gp,16(sp)
  40714c:	8f84809c 	lw	a0,-32612(gp)
  407150:	8f998204 	lw	t9,-32252(gp)
  407154:	0320f809 	jalr	t9
  407158:	00008821 	move	s1,zero
  40715c:	08101b50 	j	406d40 <gpio_input_state_get+0xdc>
  407160:	8fbc0010 	lw	gp,16(sp)
  407164:	24060020 	li	a2,32
  407168:	10460020 	beq	v0,a2,4071ec <gpio_input_state_get+0x588>
  40716c:	27a40050 	addiu	a0,sp,80
  407170:	08101c64 	j	407190 <gpio_input_state_get+0x52c>
  407174:	00002821 	move	a1,zero
  407178:	306300ff 	andi	v1,v1,0xff
  40717c:	24840001 	addiu	a0,a0,1
  407180:	80820000 	lb	v0,0(a0)
  407184:	00052900 	sll	a1,a1,0x4
  407188:	10400014 	beqz	v0,4071dc <gpio_input_state_get+0x578>
  40718c:	00652825 	or	a1,v1,a1
  407190:	304200ff 	andi	v0,v0,0xff
  407194:	2443ffd0 	addiu	v1,v0,-48
  407198:	306300ff 	andi	v1,v1,0xff
  40719c:	2447ff9f 	addiu	a3,v0,-97
  4071a0:	2c66000a 	sltiu	a2,v1,10
  4071a4:	14c0fff5 	bnez	a2,40717c <gpio_input_state_get+0x518>
  4071a8:	2ce70006 	sltiu	a3,a3,6
  4071ac:	2446ffbf 	addiu	a2,v0,-65
  4071b0:	2443ffa9 	addiu	v1,v0,-87
  4071b4:	2cc60006 	sltiu	a2,a2,6
  4071b8:	14e0ffef 	bnez	a3,407178 <gpio_input_state_get+0x514>
  4071bc:	2442ffc9 	addiu	v0,v0,-55
  4071c0:	10c00006 	beqz	a2,4071dc <gpio_input_state_get+0x578>
  4071c4:	24840001 	addiu	a0,a0,1
  4071c8:	304300ff 	andi	v1,v0,0xff
  4071cc:	80820000 	lb	v0,0(a0)
  4071d0:	00052900 	sll	a1,a1,0x4
  4071d4:	1440ffee 	bnez	v0,407190 <gpio_input_state_get+0x52c>
  4071d8:	00652825 	or	a1,v1,a1
  4071dc:	00051600 	sll	v0,a1,0x18
  4071e0:	00021603 	sra	v0,v0,0x18
  4071e4:	08101b6d 	j	406db4 <gpio_input_state_get+0x150>
  4071e8:	30a500ff 	andi	a1,a1,0xff
  4071ec:	00002821 	move	a1,zero
  4071f0:	08101b6d 	j	406db4 <gpio_input_state_get+0x150>
  4071f4:	00001021 	move	v0,zero
  4071f8:	08101b6e 	j	406db8 <gpio_input_state_get+0x154>
  4071fc:	92c50000 	lbu	a1,0(s6)
  407200:	8fa40088 	lw	a0,136(sp)
  407204:	10830096 	beq	a0,v1,407460 <gpio_input_state_get+0x7fc>
  407208:	8fa3008c 	lw	v1,140(sp)
  40720c:	1060ffb5 	beqz	v1,4070e4 <gpio_input_state_get+0x480>
  407210:	8f8780a0 	lw	a3,-32608(gp)
  407214:	8fa4005c 	lw	a0,92(sp)
  407218:	10c400d0 	beq	a2,a0,40755c <gpio_input_state_get+0x8f8>
  40721c:	8f8580ac 	lw	a1,-32596(gp)
  407220:	1100ffb1 	beqz	t0,4070e8 <gpio_input_state_get+0x484>
  407224:	8f8d80b0 	lw	t5,-32592(gp)
  407228:	8f8580ac 	lw	a1,-32596(gp)
  40722c:	24020006 	li	v0,6
  407230:	08101c39 	j	4070e4 <gpio_input_state_get+0x480>
  407234:	a4a20016 	sh	v0,22(a1)
  407238:	8fa20080 	lw	v0,128(sp)
  40723c:	104d0098 	beq	v0,t5,4074a0 <gpio_input_state_get+0x83c>
  407240:	8fa30084 	lw	v1,132(sp)
  407244:	8fa20090 	lw	v0,144(sp)
  407248:	1040ff95 	beqz	v0,4070a0 <gpio_input_state_get+0x43c>
  40724c:	8fa3005c 	lw	v1,92(sp)
  407250:	8fa30084 	lw	v1,132(sp)
  407254:	8fa40058 	lw	a0,88(sp)
  407258:	106400c3 	beq	v1,a0,407568 <gpio_input_state_get+0x904>
  40725c:	8f8580ac 	lw	a1,-32596(gp)
  407260:	1120ff8f 	beqz	t1,4070a0 <gpio_input_state_get+0x43c>
  407264:	8fa3005c 	lw	v1,92(sp)
  407268:	8f8780ac 	lw	a3,-32596(gp)
  40726c:	24020006 	li	v0,6
  407270:	08101c27 	j	40709c <gpio_input_state_get+0x438>
  407274:	a4e20014 	sh	v0,20(a3)
  407278:	11a40070 	beq	t5,a0,40743c <gpio_input_state_get+0x7d8>
  40727c:	00000000 	nop
  407280:	12a0ff53 	beqz	s5,406fd0 <gpio_input_state_get+0x36c>
  407284:	8fa5006c 	lw	a1,108(sp)
  407288:	10a400ba 	beq	a1,a0,407574 <gpio_input_state_get+0x910>
  40728c:	8f8780ac 	lw	a3,-32596(gp)
  407290:	1280ff50 	beqz	s4,406fd4 <gpio_input_state_get+0x370>
  407294:	24040001 	li	a0,1
  407298:	8f8580ac 	lw	a1,-32596(gp)
  40729c:	24040006 	li	a0,6
  4072a0:	a4a4000e 	sh	a0,14(a1)
  4072a4:	24040001 	li	a0,1
  4072a8:	1464ff4c 	bne	v1,a0,406fdc <gpio_input_state_get+0x378>
  4072ac:	8fad0070 	lw	t5,112(sp)
  4072b0:	11a30083 	beq	t5,v1,4074c0 <gpio_input_state_get+0x85c>
  4072b4:	00000000 	nop
  4072b8:	11e0ff56 	beqz	t7,407014 <gpio_input_state_get+0x3b0>
  4072bc:	8fa40074 	lw	a0,116(sp)
  4072c0:	1083009c 	beq	a0,v1,407534 <gpio_input_state_get+0x8d0>
  4072c4:	8f8580ac 	lw	a1,-32596(gp)
  4072c8:	11c0ff53 	beqz	t6,407018 <gpio_input_state_get+0x3b4>
  4072cc:	24030001 	li	v1,1
  4072d0:	8f8780ac 	lw	a3,-32596(gp)
  4072d4:	24030006 	li	v1,6
  4072d8:	a4e30010 	sh	v1,16(a3)
  4072dc:	24030001 	li	v1,1
  4072e0:	1443ff4f 	bne	v0,v1,407020 <gpio_input_state_get+0x3bc>
  4072e4:	8fa70098 	lw	a3,152(sp)
  4072e8:	8fa30078 	lw	v1,120(sp)
  4072ec:	1062004b 	beq	v1,v0,40741c <gpio_input_state_get+0x7b8>
  4072f0:	8fa4007c 	lw	a0,124(sp)
  4072f4:	1180ff57 	beqz	t4,407054 <gpio_input_state_get+0x3f0>
  4072f8:	00000000 	nop
  4072fc:	108200a0 	beq	a0,v0,407580 <gpio_input_state_get+0x91c>
  407300:	8f8580ac 	lw	a1,-32596(gp)
  407304:	1160ff54 	beqz	t3,407058 <gpio_input_state_get+0x3f4>
  407308:	8fad0058 	lw	t5,88(sp)
  40730c:	8f8580ac 	lw	a1,-32596(gp)
  407310:	24020006 	li	v0,6
  407314:	08101c15 	j	407054 <gpio_input_state_get+0x3f0>
  407318:	a4a20012 	sh	v0,18(a1)
  40731c:	8fa70060 	lw	a3,96(sp)
  407320:	10e50057 	beq	a3,a1,407480 <gpio_input_state_get+0x81c>
  407324:	8fad0064 	lw	t5,100(sp)
  407328:	1320ff19 	beqz	t9,406f90 <gpio_input_state_get+0x32c>
  40732c:	00000000 	nop
  407330:	11a50087 	beq	t5,a1,407550 <gpio_input_state_get+0x8ec>
  407334:	24050002 	li	a1,2
  407338:	1300ff16 	beqz	t8,406f94 <gpio_input_state_get+0x330>
  40733c:	24050001 	li	a1,1
  407340:	8f8d80ac 	lw	t5,-32596(gp)
  407344:	24050006 	li	a1,6
  407348:	08101be4 	j	406f90 <gpio_input_state_get+0x32c>
  40734c:	a5a5000c 	sh	a1,12(t5)
  407350:	8fa50064 	lw	a1,100(sp)
  407354:	10adff0d 	beq	a1,t5,406f8c <gpio_input_state_get+0x328>
  407358:	8f8780ac 	lw	a3,-32596(gp)
  40735c:	1300ff0d 	beqz	t8,406f94 <gpio_input_state_get+0x330>
  407360:	24050001 	li	a1,1
  407364:	8f8780ac 	lw	a3,-32596(gp)
  407368:	24050005 	li	a1,5
  40736c:	08101be4 	j	406f90 <gpio_input_state_get+0x32c>
  407370:	a4e5000c 	sh	a1,12(a3)
  407374:	10e5006d 	beq	a3,a1,40752c <gpio_input_state_get+0x8c8>
  407378:	8f8d80ac 	lw	t5,-32596(gp)
  40737c:	11c0ff26 	beqz	t6,407018 <gpio_input_state_get+0x3b4>
  407380:	24030001 	li	v1,1
  407384:	8f8580ac 	lw	a1,-32596(gp)
  407388:	24030005 	li	v1,5
  40738c:	08101c05 	j	407014 <gpio_input_state_get+0x3b0>
  407390:	a4a30010 	sh	v1,16(a1)
  407394:	8fa2007c 	lw	v0,124(sp)
  407398:	104d0026 	beq	v0,t5,407434 <gpio_input_state_get+0x7d0>
  40739c:	8f8380ac 	lw	v1,-32596(gp)
  4073a0:	1160ff2d 	beqz	t3,407058 <gpio_input_state_get+0x3f4>
  4073a4:	8fad0058 	lw	t5,88(sp)
  4073a8:	8f8480ac 	lw	a0,-32596(gp)
  4073ac:	24020005 	li	v0,5
  4073b0:	08101c15 	j	407054 <gpio_input_state_get+0x3f0>
  4073b4:	a4820012 	sh	v0,18(a0)
  4073b8:	11a70063 	beq	t5,a3,407548 <gpio_input_state_get+0x8e4>
  4073bc:	8f8480ac 	lw	a0,-32596(gp)
  4073c0:	1280ff04 	beqz	s4,406fd4 <gpio_input_state_get+0x370>
  4073c4:	24040001 	li	a0,1
  4073c8:	8f8d80ac 	lw	t5,-32596(gp)
  4073cc:	24040005 	li	a0,5
  4073d0:	08101bf4 	j	406fd0 <gpio_input_state_get+0x36c>
  4073d4:	a5a4000e 	sh	a0,14(t5)
  4073d8:	8fa70084 	lw	a3,132(sp)
  4073dc:	10e50058 	beq	a3,a1,407540 <gpio_input_state_get+0x8dc>
  4073e0:	8f8d80ac 	lw	t5,-32596(gp)
  4073e4:	1120ff2e 	beqz	t1,4070a0 <gpio_input_state_get+0x43c>
  4073e8:	8fa3005c 	lw	v1,92(sp)
  4073ec:	8f8580ac 	lw	a1,-32596(gp)
  4073f0:	24020005 	li	v0,5
  4073f4:	08101c27 	j	40709c <gpio_input_state_get+0x438>
  4073f8:	a4a20014 	sh	v0,20(a1)
  4073fc:	10cd0063 	beq	a2,t5,40758c <gpio_input_state_get+0x928>
  407400:	8f8280ac 	lw	v0,-32596(gp)
  407404:	1100ff37 	beqz	t0,4070e4 <gpio_input_state_get+0x480>
  407408:	8f8780a0 	lw	a3,-32608(gp)
  40740c:	8f8480ac 	lw	a0,-32596(gp)
  407410:	24020005 	li	v0,5
  407414:	08101c39 	j	4070e4 <gpio_input_state_get+0x480>
  407418:	a4820016 	sh	v0,22(a0)
  40741c:	1083005f 	beq	a0,v1,40759c <gpio_input_state_get+0x938>
  407420:	8f8580ac 	lw	a1,-32596(gp)
  407424:	1160ff0c 	beqz	t3,407058 <gpio_input_state_get+0x3f4>
  407428:	8fad0058 	lw	t5,88(sp)
  40742c:	24020004 	li	v0,4
  407430:	8f8380ac 	lw	v1,-32596(gp)
  407434:	08101c15 	j	407054 <gpio_input_state_get+0x3f0>
  407438:	a4620012 	sh	v0,18(v1)
  40743c:	8fa4006c 	lw	a0,108(sp)
  407440:	108d005e 	beq	a0,t5,4075bc <gpio_input_state_get+0x958>
  407444:	8f8580ac 	lw	a1,-32596(gp)
  407448:	1280fee2 	beqz	s4,406fd4 <gpio_input_state_get+0x370>
  40744c:	24040001 	li	a0,1
  407450:	8f8780ac 	lw	a3,-32596(gp)
  407454:	24040004 	li	a0,4
  407458:	08101bf4 	j	406fd0 <gpio_input_state_get+0x36c>
  40745c:	a4e4000e 	sh	a0,14(a3)
  407460:	10c40054 	beq	a2,a0,4075b4 <gpio_input_state_get+0x950>
  407464:	8f8580ac 	lw	a1,-32596(gp)
  407468:	1100ff1e 	beqz	t0,4070e4 <gpio_input_state_get+0x480>
  40746c:	8f8780a0 	lw	a3,-32608(gp)
  407470:	8f8380ac 	lw	v1,-32596(gp)
  407474:	24020004 	li	v0,4
  407478:	08101c39 	j	4070e4 <gpio_input_state_get+0x480>
  40747c:	a4620016 	sh	v0,22(v1)
  407480:	11a70044 	beq	t5,a3,407594 <gpio_input_state_get+0x930>
  407484:	8f8580ac 	lw	a1,-32596(gp)
  407488:	1300fec2 	beqz	t8,406f94 <gpio_input_state_get+0x330>
  40748c:	24050001 	li	a1,1
  407490:	8f8d80ac 	lw	t5,-32596(gp)
  407494:	24050004 	li	a1,4
  407498:	08101be4 	j	406f90 <gpio_input_state_get+0x32c>
  40749c:	a5a5000c 	sh	a1,12(t5)
  4074a0:	10620042 	beq	v1,v0,4075ac <gpio_input_state_get+0x948>
  4074a4:	8f8480ac 	lw	a0,-32596(gp)
  4074a8:	1120fefd 	beqz	t1,4070a0 <gpio_input_state_get+0x43c>
  4074ac:	8fa3005c 	lw	v1,92(sp)
  4074b0:	8f8480ac 	lw	a0,-32596(gp)
  4074b4:	24020004 	li	v0,4
  4074b8:	08101c27 	j	40709c <gpio_input_state_get+0x438>
  4074bc:	a4820014 	sh	v0,20(a0)
  4074c0:	8fa30074 	lw	v1,116(sp)
  4074c4:	106d0037 	beq	v1,t5,4075a4 <gpio_input_state_get+0x940>
  4074c8:	8f8480ac 	lw	a0,-32596(gp)
  4074cc:	11c0fed2 	beqz	t6,407018 <gpio_input_state_get+0x3b4>
  4074d0:	24030001 	li	v1,1
  4074d4:	8f8480ac 	lw	a0,-32596(gp)
  4074d8:	24030004 	li	v1,4
  4074dc:	08101c05 	j	407014 <gpio_input_state_get+0x3b0>
  4074e0:	a4830010 	sh	v1,16(a0)
  4074e4:	24050003 	li	a1,3
  4074e8:	08101be4 	j	406f90 <gpio_input_state_get+0x32c>
  4074ec:	a4e5000c 	sh	a1,12(a3)
  4074f0:	8f8580ac 	lw	a1,-32596(gp)
  4074f4:	08101bf4 	j	406fd0 <gpio_input_state_get+0x36c>
  4074f8:	a4a4000e 	sh	a0,14(a1)
  4074fc:	24020003 	li	v0,3
  407500:	08101c38 	j	4070e0 <gpio_input_state_get+0x47c>
  407504:	a5a20016 	sh	v0,22(t5)
  407508:	24020003 	li	v0,3
  40750c:	08101c27 	j	40709c <gpio_input_state_get+0x438>
  407510:	a4620014 	sh	v0,20(v1)
  407514:	24020003 	li	v0,3
  407518:	08101c15 	j	407054 <gpio_input_state_get+0x3f0>
  40751c:	a5a20012 	sh	v0,18(t5)
  407520:	24030003 	li	v1,3
  407524:	08101c05 	j	407014 <gpio_input_state_get+0x3b0>
  407528:	a5a30010 	sh	v1,16(t5)
  40752c:	08101c05 	j	407014 <gpio_input_state_get+0x3b0>
  407530:	a5a70010 	sh	a3,16(t5)
  407534:	24030002 	li	v1,2
  407538:	08101c05 	j	407014 <gpio_input_state_get+0x3b0>
  40753c:	a4a30010 	sh	v1,16(a1)
  407540:	08101c27 	j	40709c <gpio_input_state_get+0x438>
  407544:	a5a70014 	sh	a3,20(t5)
  407548:	08101bf4 	j	406fd0 <gpio_input_state_get+0x36c>
  40754c:	a48d000e 	sh	t5,14(a0)
  407550:	8f8780ac 	lw	a3,-32596(gp)
  407554:	08101be4 	j	406f90 <gpio_input_state_get+0x32c>
  407558:	a4e5000c 	sh	a1,12(a3)
  40755c:	24020002 	li	v0,2
  407560:	08101c38 	j	4070e0 <gpio_input_state_get+0x47c>
  407564:	a4a20016 	sh	v0,22(a1)
  407568:	24020002 	li	v0,2
  40756c:	08101c27 	j	40709c <gpio_input_state_get+0x438>
  407570:	a4a20014 	sh	v0,20(a1)
  407574:	24040002 	li	a0,2
  407578:	08101bf4 	j	406fd0 <gpio_input_state_get+0x36c>
  40757c:	a4e4000e 	sh	a0,14(a3)
  407580:	24020002 	li	v0,2
  407584:	08101c15 	j	407054 <gpio_input_state_get+0x3f0>
  407588:	a4a20012 	sh	v0,18(a1)
  40758c:	08101c38 	j	4070e0 <gpio_input_state_get+0x47c>
  407590:	a4460016 	sh	a2,22(v0)
  407594:	08101be4 	j	406f90 <gpio_input_state_get+0x32c>
  407598:	a4a0000c 	sh	zero,12(a1)
  40759c:	08101c15 	j	407054 <gpio_input_state_get+0x3f0>
  4075a0:	a4a00012 	sh	zero,18(a1)
  4075a4:	08101c05 	j	407014 <gpio_input_state_get+0x3b0>
  4075a8:	a4800010 	sh	zero,16(a0)
  4075ac:	08101c27 	j	40709c <gpio_input_state_get+0x438>
  4075b0:	a4800014 	sh	zero,20(a0)
  4075b4:	08101c38 	j	4070e0 <gpio_input_state_get+0x47c>
  4075b8:	a4a00016 	sh	zero,22(a1)
  4075bc:	08101bf4 	j	406fd0 <gpio_input_state_get+0x36c>
  4075c0:	a4a0000e 	sh	zero,14(a1)
	...

004075d0 <relay_gpio_export_init>:
  4075d0:	3c1c0042 	lui	gp,0x42
  4075d4:	279c5520 	addiu	gp,gp,21792
  4075d8:	27bdffe0 	addiu	sp,sp,-32
  4075dc:	8f9981a4 	lw	t9,-32348(gp)
  4075e0:	3c040041 	lui	a0,0x41
  4075e4:	2484c1d0 	addiu	a0,a0,-15920
  4075e8:	afb00018 	sw	s0,24(sp)
  4075ec:	afbc0010 	sw	gp,16(sp)
  4075f0:	afbf001c 	sw	ra,28(sp)
  4075f4:	0320f809 	jalr	t9
  4075f8:	24050001 	li	a1,1
  4075fc:	00408021 	move	s0,v0
  407600:	2402ffff 	li	v0,-1
  407604:	120200cd 	beq	s0,v0,40793c <relay_gpio_export_init+0x36c>
  407608:	8fbc0010 	lw	gp,16(sp)
  40760c:	8f998190 	lw	t9,-32368(gp)
  407610:	3c050041 	lui	a1,0x41
  407614:	02002021 	move	a0,s0
  407618:	24a5ca78 	addiu	a1,a1,-13704
  40761c:	0320f809 	jalr	t9
  407620:	24060004 	li	a2,4
  407624:	8fbc0010 	lw	gp,16(sp)
  407628:	3c050041 	lui	a1,0x41
  40762c:	8f998190 	lw	t9,-32368(gp)
  407630:	02002021 	move	a0,s0
  407634:	24a5ca7c 	addiu	a1,a1,-13700
  407638:	0320f809 	jalr	t9
  40763c:	24060004 	li	a2,4
  407640:	8fbc0010 	lw	gp,16(sp)
  407644:	3c050041 	lui	a1,0x41
  407648:	8f998190 	lw	t9,-32368(gp)
  40764c:	02002021 	move	a0,s0
  407650:	24a5ca80 	addiu	a1,a1,-13696
  407654:	0320f809 	jalr	t9
  407658:	24060004 	li	a2,4
  40765c:	8fbc0010 	lw	gp,16(sp)
  407660:	3c050041 	lui	a1,0x41
  407664:	8f998190 	lw	t9,-32368(gp)
  407668:	02002021 	move	a0,s0
  40766c:	24a5ca84 	addiu	a1,a1,-13692
  407670:	0320f809 	jalr	t9
  407674:	24060004 	li	a2,4
  407678:	8fbc0010 	lw	gp,16(sp)
  40767c:	3c050041 	lui	a1,0x41
  407680:	8f998190 	lw	t9,-32368(gp)
  407684:	02002021 	move	a0,s0
  407688:	24a5ca88 	addiu	a1,a1,-13688
  40768c:	0320f809 	jalr	t9
  407690:	24060004 	li	a2,4
  407694:	8fbc0010 	lw	gp,16(sp)
  407698:	3c050041 	lui	a1,0x41
  40769c:	8f998190 	lw	t9,-32368(gp)
  4076a0:	02002021 	move	a0,s0
  4076a4:	24a5ca8c 	addiu	a1,a1,-13684
  4076a8:	0320f809 	jalr	t9
  4076ac:	24060004 	li	a2,4
  4076b0:	8fbc0010 	lw	gp,16(sp)
  4076b4:	3c050041 	lui	a1,0x41
  4076b8:	8f998190 	lw	t9,-32368(gp)
  4076bc:	02002021 	move	a0,s0
  4076c0:	24a5ca90 	addiu	a1,a1,-13680
  4076c4:	0320f809 	jalr	t9
  4076c8:	24060004 	li	a2,4
  4076cc:	8fbc0010 	lw	gp,16(sp)
  4076d0:	3c050041 	lui	a1,0x41
  4076d4:	8f998190 	lw	t9,-32368(gp)
  4076d8:	02002021 	move	a0,s0
  4076dc:	24a5ca94 	addiu	a1,a1,-13676
  4076e0:	0320f809 	jalr	t9
  4076e4:	24060004 	li	a2,4
  4076e8:	8fbc0010 	lw	gp,16(sp)
  4076ec:	3c050041 	lui	a1,0x41
  4076f0:	8f998190 	lw	t9,-32368(gp)
  4076f4:	02002021 	move	a0,s0
  4076f8:	24a5ca98 	addiu	a1,a1,-13672
  4076fc:	0320f809 	jalr	t9
  407700:	24060004 	li	a2,4
  407704:	8fbc0010 	lw	gp,16(sp)
  407708:	3c050041 	lui	a1,0x41
  40770c:	8f998190 	lw	t9,-32368(gp)
  407710:	02002021 	move	a0,s0
  407714:	24a5ca9c 	addiu	a1,a1,-13668
  407718:	0320f809 	jalr	t9
  40771c:	24060004 	li	a2,4
  407720:	8fbc0010 	lw	gp,16(sp)
  407724:	3c050041 	lui	a1,0x41
  407728:	8f998190 	lw	t9,-32368(gp)
  40772c:	02002021 	move	a0,s0
  407730:	24a5caa0 	addiu	a1,a1,-13664
  407734:	0320f809 	jalr	t9
  407738:	24060004 	li	a2,4
  40773c:	8fbc0010 	lw	gp,16(sp)
  407740:	3c050041 	lui	a1,0x41
  407744:	8f998190 	lw	t9,-32368(gp)
  407748:	02002021 	move	a0,s0
  40774c:	24a5caa4 	addiu	a1,a1,-13660
  407750:	0320f809 	jalr	t9
  407754:	24060004 	li	a2,4
  407758:	8fbc0010 	lw	gp,16(sp)
  40775c:	3c050041 	lui	a1,0x41
  407760:	8f998190 	lw	t9,-32368(gp)
  407764:	02002021 	move	a0,s0
  407768:	24a5caa8 	addiu	a1,a1,-13656
  40776c:	0320f809 	jalr	t9
  407770:	24060004 	li	a2,4
  407774:	8fbc0010 	lw	gp,16(sp)
  407778:	3c050041 	lui	a1,0x41
  40777c:	8f998190 	lw	t9,-32368(gp)
  407780:	02002021 	move	a0,s0
  407784:	24a5caac 	addiu	a1,a1,-13652
  407788:	0320f809 	jalr	t9
  40778c:	24060004 	li	a2,4
  407790:	8fbc0010 	lw	gp,16(sp)
  407794:	3c050041 	lui	a1,0x41
  407798:	8f998190 	lw	t9,-32368(gp)
  40779c:	02002021 	move	a0,s0
  4077a0:	24a5cab0 	addiu	a1,a1,-13648
  4077a4:	0320f809 	jalr	t9
  4077a8:	24060004 	li	a2,4
  4077ac:	8fbc0010 	lw	gp,16(sp)
  4077b0:	3c050041 	lui	a1,0x41
  4077b4:	8f998190 	lw	t9,-32368(gp)
  4077b8:	02002021 	move	a0,s0
  4077bc:	24a5cab4 	addiu	a1,a1,-13644
  4077c0:	0320f809 	jalr	t9
  4077c4:	24060004 	li	a2,4
  4077c8:	8fbc0010 	lw	gp,16(sp)
  4077cc:	3c050041 	lui	a1,0x41
  4077d0:	8f998190 	lw	t9,-32368(gp)
  4077d4:	02002021 	move	a0,s0
  4077d8:	24a5cab8 	addiu	a1,a1,-13640
  4077dc:	0320f809 	jalr	t9
  4077e0:	24060004 	li	a2,4
  4077e4:	8fbc0010 	lw	gp,16(sp)
  4077e8:	3c050041 	lui	a1,0x41
  4077ec:	8f998190 	lw	t9,-32368(gp)
  4077f0:	02002021 	move	a0,s0
  4077f4:	24a5cabc 	addiu	a1,a1,-13636
  4077f8:	0320f809 	jalr	t9
  4077fc:	24060004 	li	a2,4
  407800:	8fbc0010 	lw	gp,16(sp)
  407804:	3c050041 	lui	a1,0x41
  407808:	8f998190 	lw	t9,-32368(gp)
  40780c:	02002021 	move	a0,s0
  407810:	24a5cac0 	addiu	a1,a1,-13632
  407814:	0320f809 	jalr	t9
  407818:	24060004 	li	a2,4
  40781c:	8fbc0010 	lw	gp,16(sp)
  407820:	3c050041 	lui	a1,0x41
  407824:	8f998190 	lw	t9,-32368(gp)
  407828:	02002021 	move	a0,s0
  40782c:	24a5cac4 	addiu	a1,a1,-13628
  407830:	0320f809 	jalr	t9
  407834:	24060004 	li	a2,4
  407838:	8fbc0010 	lw	gp,16(sp)
  40783c:	3c050041 	lui	a1,0x41
  407840:	8f998190 	lw	t9,-32368(gp)
  407844:	02002021 	move	a0,s0
  407848:	24a5cac8 	addiu	a1,a1,-13624
  40784c:	0320f809 	jalr	t9
  407850:	24060004 	li	a2,4
  407854:	8fbc0010 	lw	gp,16(sp)
  407858:	3c050041 	lui	a1,0x41
  40785c:	8f998190 	lw	t9,-32368(gp)
  407860:	02002021 	move	a0,s0
  407864:	24a5cacc 	addiu	a1,a1,-13620
  407868:	0320f809 	jalr	t9
  40786c:	24060004 	li	a2,4
  407870:	8fbc0010 	lw	gp,16(sp)
  407874:	3c050041 	lui	a1,0x41
  407878:	8f998190 	lw	t9,-32368(gp)
  40787c:	02002021 	move	a0,s0
  407880:	24a5cad0 	addiu	a1,a1,-13616
  407884:	0320f809 	jalr	t9
  407888:	24060004 	li	a2,4
  40788c:	8fbc0010 	lw	gp,16(sp)
  407890:	3c050041 	lui	a1,0x41
  407894:	8f998190 	lw	t9,-32368(gp)
  407898:	02002021 	move	a0,s0
  40789c:	24a5cad4 	addiu	a1,a1,-13612
  4078a0:	0320f809 	jalr	t9
  4078a4:	24060004 	li	a2,4
  4078a8:	8fbc0010 	lw	gp,16(sp)
  4078ac:	3c050041 	lui	a1,0x41
  4078b0:	8f998190 	lw	t9,-32368(gp)
  4078b4:	02002021 	move	a0,s0
  4078b8:	24a5cad8 	addiu	a1,a1,-13608
  4078bc:	0320f809 	jalr	t9
  4078c0:	24060004 	li	a2,4
  4078c4:	8fbc0010 	lw	gp,16(sp)
  4078c8:	3c050041 	lui	a1,0x41
  4078cc:	8f998190 	lw	t9,-32368(gp)
  4078d0:	02002021 	move	a0,s0
  4078d4:	24a5cadc 	addiu	a1,a1,-13604
  4078d8:	0320f809 	jalr	t9
  4078dc:	24060004 	li	a2,4
  4078e0:	8fbc0010 	lw	gp,16(sp)
  4078e4:	3c050041 	lui	a1,0x41
  4078e8:	8f998190 	lw	t9,-32368(gp)
  4078ec:	02002021 	move	a0,s0
  4078f0:	24a5cae0 	addiu	a1,a1,-13600
  4078f4:	0320f809 	jalr	t9
  4078f8:	24060004 	li	a2,4
  4078fc:	8fbc0010 	lw	gp,16(sp)
  407900:	3c050041 	lui	a1,0x41
  407904:	8f998190 	lw	t9,-32368(gp)
  407908:	02002021 	move	a0,s0
  40790c:	24a5cae4 	addiu	a1,a1,-13596
  407910:	0320f809 	jalr	t9
  407914:	24060004 	li	a2,4
  407918:	8fbc0010 	lw	gp,16(sp)
  40791c:	8f998144 	lw	t9,-32444(gp)
  407920:	0320f809 	jalr	t9
  407924:	02002021 	move	a0,s0
  407928:	24020001 	li	v0,1
  40792c:	8fbf001c 	lw	ra,28(sp)
  407930:	8fb00018 	lw	s0,24(sp)
  407934:	03e00008 	jr	ra
  407938:	27bd0020 	addiu	sp,sp,32
  40793c:	8f9981b4 	lw	t9,-32332(gp)
  407940:	3c040041 	lui	a0,0x41
  407944:	0320f809 	jalr	t9
  407948:	2484ca58 	addiu	a0,a0,-13736
  40794c:	08101e4b 	j	40792c <relay_gpio_export_init+0x35c>
  407950:	2402ffff 	li	v0,-1

00407954 <relay_gpio_direction_set_init>:
  407954:	27bdff80 	addiu	sp,sp,-128
  407958:	3c1c0042 	lui	gp,0x42
  40795c:	afb4006c 	sw	s4,108(sp)
  407960:	afb30068 	sw	s3,104(sp)
  407964:	3c140041 	lui	s4,0x41
  407968:	3c130041 	lui	s3,0x41
  40796c:	afb50070 	sw	s5,112(sp)
  407970:	279c5520 	addiu	gp,gp,21792
  407974:	2694ceb4 	addiu	s4,s4,-12620
  407978:	2673ce6c 	addiu	s3,s3,-12692
  40797c:	3c150041 	lui	s5,0x41
  407980:	afb70078 	sw	s7,120(sp)
  407984:	afb60074 	sw	s6,116(sp)
  407988:	afb20064 	sw	s2,100(sp)
  40798c:	afb0005c 	sw	s0,92(sp)
  407990:	afbf007c 	sw	ra,124(sp)
  407994:	afb10060 	sw	s1,96(sp)
  407998:	afbc0010 	sw	gp,16(sp)
  40799c:	24120001 	li	s2,1
  4079a0:	00008021 	move	s0,zero
  4079a4:	26970020 	addiu	s7,s4,32
  4079a8:	26b5ce90 	addiu	s5,s5,-12656
  4079ac:	26760020 	addiu	s6,s3,32
  4079b0:	8f998184 	lw	t9,-32380(gp)
  4079b4:	27a40018 	addiu	a0,sp,24
  4079b8:	00002821 	move	a1,zero
  4079bc:	0320f809 	jalr	t9
  4079c0:	24060040 	li	a2,64
  4079c4:	12000045 	beqz	s0,407adc <relay_gpio_direction_set_init+0x188>
  4079c8:	8fbc0010 	lw	gp,16(sp)
  4079cc:	24020001 	li	v0,1
  4079d0:	1202007c 	beq	s0,v0,407bc4 <relay_gpio_direction_set_init+0x270>
  4079d4:	24020002 	li	v0,2
  4079d8:	1202008b 	beq	s0,v0,407c08 <relay_gpio_direction_set_init+0x2b4>
  4079dc:	24020003 	li	v0,3
  4079e0:	1202009a 	beq	s0,v0,407c4c <relay_gpio_direction_set_init+0x2f8>
  4079e4:	24020004 	li	v0,4
  4079e8:	120200a9 	beq	s0,v0,407c90 <relay_gpio_direction_set_init+0x33c>
  4079ec:	24020005 	li	v0,5
  4079f0:	120200b8 	beq	s0,v0,407cd4 <relay_gpio_direction_set_init+0x380>
  4079f4:	24020006 	li	v0,6
  4079f8:	120200c7 	beq	s0,v0,407d18 <relay_gpio_direction_set_init+0x3c4>
  4079fc:	24020007 	li	v0,7
  407a00:	120200d6 	beq	s0,v0,407d5c <relay_gpio_direction_set_init+0x408>
  407a04:	24020008 	li	v0,8
  407a08:	120200e5 	beq	s0,v0,407da0 <relay_gpio_direction_set_init+0x44c>
  407a0c:	24020009 	li	v0,9
  407a10:	120200f4 	beq	s0,v0,407de4 <relay_gpio_direction_set_init+0x490>
  407a14:	2402000a 	li	v0,10
  407a18:	12020103 	beq	s0,v0,407e28 <relay_gpio_direction_set_init+0x4d4>
  407a1c:	2402000b 	li	v0,11
  407a20:	12020112 	beq	s0,v0,407e6c <relay_gpio_direction_set_init+0x518>
  407a24:	2402000c 	li	v0,12
  407a28:	12020121 	beq	s0,v0,407eb0 <relay_gpio_direction_set_init+0x55c>
  407a2c:	2402000d 	li	v0,13
  407a30:	12020130 	beq	s0,v0,407ef4 <relay_gpio_direction_set_init+0x5a0>
  407a34:	2402000e 	li	v0,14
  407a38:	1202013f 	beq	s0,v0,407f38 <relay_gpio_direction_set_init+0x5e4>
  407a3c:	2402000f 	li	v0,15
  407a40:	1202014e 	beq	s0,v0,407f7c <relay_gpio_direction_set_init+0x628>
  407a44:	24020010 	li	v0,16
  407a48:	1202015d 	beq	s0,v0,407fc0 <relay_gpio_direction_set_init+0x66c>
  407a4c:	24020011 	li	v0,17
  407a50:	1202016c 	beq	s0,v0,408004 <relay_gpio_direction_set_init+0x6b0>
  407a54:	24020012 	li	v0,18
  407a58:	1202017b 	beq	s0,v0,408048 <relay_gpio_direction_set_init+0x6f4>
  407a5c:	24020013 	li	v0,19
  407a60:	1202019a 	beq	s0,v0,4080cc <relay_gpio_direction_set_init+0x778>
  407a64:	24020014 	li	v0,20
  407a68:	120201a9 	beq	s0,v0,408110 <relay_gpio_direction_set_init+0x7bc>
  407a6c:	24020015 	li	v0,21
  407a70:	120201b8 	beq	s0,v0,408154 <relay_gpio_direction_set_init+0x800>
  407a74:	24020016 	li	v0,22
  407a78:	120201c7 	beq	s0,v0,408198 <relay_gpio_direction_set_init+0x844>
  407a7c:	24020017 	li	v0,23
  407a80:	120201d6 	beq	s0,v0,4081dc <relay_gpio_direction_set_init+0x888>
  407a84:	24020018 	li	v0,24
  407a88:	120201e5 	beq	s0,v0,408220 <relay_gpio_direction_set_init+0x8cc>
  407a8c:	24020019 	li	v0,25
  407a90:	120201f4 	beq	s0,v0,408264 <relay_gpio_direction_set_init+0x910>
  407a94:	2402001a 	li	v0,26
  407a98:	1202017c 	beq	s0,v0,40808c <relay_gpio_direction_set_init+0x738>
  407a9c:	02801021 	move	v0,s4
  407aa0:	27a30018 	addiu	v1,sp,24
  407aa4:	8c470000 	lw	a3,0(v0)
  407aa8:	8c460004 	lw	a2,4(v0)
  407aac:	8c450008 	lw	a1,8(v0)
  407ab0:	8c44000c 	lw	a0,12(v0)
  407ab4:	24420010 	addiu	v0,v0,16
  407ab8:	ac670000 	sw	a3,0(v1)
  407abc:	ac660004 	sw	a2,4(v1)
  407ac0:	ac650008 	sw	a1,8(v1)
  407ac4:	ac64000c 	sw	a0,12(v1)
  407ac8:	1457fff6 	bne	v0,s7,407aa4 <relay_gpio_direction_set_init+0x150>
  407acc:	24630010 	addiu	v1,v1,16
  407ad0:	96e20000 	lhu	v0,0(s7)
  407ad4:	08101ec8 	j	407b20 <relay_gpio_direction_set_init+0x1cc>
  407ad8:	a4620000 	sh	v0,0(v1)
  407adc:	3c020041 	lui	v0,0x41
  407ae0:	2442cae8 	addiu	v0,v0,-13592
  407ae4:	27a30018 	addiu	v1,sp,24
  407ae8:	24440020 	addiu	a0,v0,32
  407aec:	8c480000 	lw	t0,0(v0)
  407af0:	8c470004 	lw	a3,4(v0)
  407af4:	8c460008 	lw	a2,8(v0)
  407af8:	8c45000c 	lw	a1,12(v0)
  407afc:	24420010 	addiu	v0,v0,16
  407b00:	ac680000 	sw	t0,0(v1)
  407b04:	ac670004 	sw	a3,4(v1)
  407b08:	ac660008 	sw	a2,8(v1)
  407b0c:	ac65000c 	sw	a1,12(v1)
  407b10:	1444fff6 	bne	v0,a0,407aec <relay_gpio_direction_set_init+0x198>
  407b14:	24630010 	addiu	v1,v1,16
  407b18:	94420000 	lhu	v0,0(v0)
  407b1c:	a4620000 	sh	v0,0(v1)
  407b20:	8f9981a4 	lw	t9,-32348(gp)
  407b24:	27a40018 	addiu	a0,sp,24
  407b28:	0320f809 	jalr	t9
  407b2c:	24050001 	li	a1,1
  407b30:	00408821 	move	s1,v0
  407b34:	2402ffff 	li	v0,-1
  407b38:	1222001b 	beq	s1,v0,407ba8 <relay_gpio_direction_set_init+0x254>
  407b3c:	8fbc0010 	lw	gp,16(sp)
  407b40:	8f998190 	lw	t9,-32368(gp)
  407b44:	3c050041 	lui	a1,0x41
  407b48:	02202021 	move	a0,s1
  407b4c:	24a5bab8 	addiu	a1,a1,-17736
  407b50:	0320f809 	jalr	t9
  407b54:	24060004 	li	a2,4
  407b58:	8fbc0010 	lw	gp,16(sp)
  407b5c:	26100001 	addiu	s0,s0,1
  407b60:	2402001c 	li	v0,28
  407b64:	1602ff92 	bne	s0,v0,4079b0 <relay_gpio_direction_set_init+0x5c>
  407b68:	26520001 	addiu	s2,s2,1
  407b6c:	8f998144 	lw	t9,-32444(gp)
  407b70:	0320f809 	jalr	t9
  407b74:	02202021 	move	a0,s1
  407b78:	8fbf007c 	lw	ra,124(sp)
  407b7c:	8fb70078 	lw	s7,120(sp)
  407b80:	8fb60074 	lw	s6,116(sp)
  407b84:	8fb50070 	lw	s5,112(sp)
  407b88:	8fb4006c 	lw	s4,108(sp)
  407b8c:	8fb30068 	lw	s3,104(sp)
  407b90:	8fb20064 	lw	s2,100(sp)
  407b94:	8fb10060 	lw	s1,96(sp)
  407b98:	8fb0005c 	lw	s0,92(sp)
  407b9c:	24020001 	li	v0,1
  407ba0:	03e00008 	jr	ra
  407ba4:	27bd0080 	addiu	sp,sp,128
  407ba8:	8f9981f8 	lw	t9,-32264(gp)
  407bac:	3c040041 	lui	a0,0x41
  407bb0:	2484ced8 	addiu	a0,a0,-12584
  407bb4:	0320f809 	jalr	t9
  407bb8:	02402821 	move	a1,s2
  407bbc:	08101ed7 	j	407b5c <relay_gpio_direction_set_init+0x208>
  407bc0:	8fbc0010 	lw	gp,16(sp)
  407bc4:	3c020041 	lui	v0,0x41
  407bc8:	2442cb0c 	addiu	v0,v0,-13556
  407bcc:	27a30018 	addiu	v1,sp,24
  407bd0:	24440020 	addiu	a0,v0,32
  407bd4:	8c480000 	lw	t0,0(v0)
  407bd8:	8c470004 	lw	a3,4(v0)
  407bdc:	8c460008 	lw	a2,8(v0)
  407be0:	8c45000c 	lw	a1,12(v0)
  407be4:	24420010 	addiu	v0,v0,16
  407be8:	ac680000 	sw	t0,0(v1)
  407bec:	ac670004 	sw	a3,4(v1)
  407bf0:	ac660008 	sw	a2,8(v1)
  407bf4:	ac65000c 	sw	a1,12(v1)
  407bf8:	1444fff6 	bne	v0,a0,407bd4 <relay_gpio_direction_set_init+0x280>
  407bfc:	24630010 	addiu	v1,v1,16
  407c00:	08101ec7 	j	407b1c <relay_gpio_direction_set_init+0x1c8>
  407c04:	94420000 	lhu	v0,0(v0)
  407c08:	3c020041 	lui	v0,0x41
  407c0c:	2442cb30 	addiu	v0,v0,-13520
  407c10:	27a30018 	addiu	v1,sp,24
  407c14:	24440020 	addiu	a0,v0,32
  407c18:	8c480000 	lw	t0,0(v0)
  407c1c:	8c470004 	lw	a3,4(v0)
  407c20:	8c460008 	lw	a2,8(v0)
  407c24:	8c45000c 	lw	a1,12(v0)
  407c28:	24420010 	addiu	v0,v0,16
  407c2c:	ac680000 	sw	t0,0(v1)
  407c30:	ac670004 	sw	a3,4(v1)
  407c34:	ac660008 	sw	a2,8(v1)
  407c38:	ac65000c 	sw	a1,12(v1)
  407c3c:	1444fff6 	bne	v0,a0,407c18 <relay_gpio_direction_set_init+0x2c4>
  407c40:	24630010 	addiu	v1,v1,16
  407c44:	08101ec7 	j	407b1c <relay_gpio_direction_set_init+0x1c8>
  407c48:	94420000 	lhu	v0,0(v0)
  407c4c:	3c020041 	lui	v0,0x41
  407c50:	2442cb54 	addiu	v0,v0,-13484
  407c54:	27a30018 	addiu	v1,sp,24
  407c58:	24440020 	addiu	a0,v0,32
  407c5c:	8c480000 	lw	t0,0(v0)
  407c60:	8c470004 	lw	a3,4(v0)
  407c64:	8c460008 	lw	a2,8(v0)
  407c68:	8c45000c 	lw	a1,12(v0)
  407c6c:	24420010 	addiu	v0,v0,16
  407c70:	ac680000 	sw	t0,0(v1)
  407c74:	ac670004 	sw	a3,4(v1)
  407c78:	ac660008 	sw	a2,8(v1)
  407c7c:	ac65000c 	sw	a1,12(v1)
  407c80:	1444fff6 	bne	v0,a0,407c5c <relay_gpio_direction_set_init+0x308>
  407c84:	24630010 	addiu	v1,v1,16
  407c88:	08101ec7 	j	407b1c <relay_gpio_direction_set_init+0x1c8>
  407c8c:	94420000 	lhu	v0,0(v0)
  407c90:	3c020041 	lui	v0,0x41
  407c94:	2442cb78 	addiu	v0,v0,-13448
  407c98:	27a30018 	addiu	v1,sp,24
  407c9c:	24440020 	addiu	a0,v0,32
  407ca0:	8c480000 	lw	t0,0(v0)
  407ca4:	8c470004 	lw	a3,4(v0)
  407ca8:	8c460008 	lw	a2,8(v0)
  407cac:	8c45000c 	lw	a1,12(v0)
  407cb0:	24420010 	addiu	v0,v0,16
  407cb4:	ac680000 	sw	t0,0(v1)
  407cb8:	ac670004 	sw	a3,4(v1)
  407cbc:	ac660008 	sw	a2,8(v1)
  407cc0:	ac65000c 	sw	a1,12(v1)
  407cc4:	1444fff6 	bne	v0,a0,407ca0 <relay_gpio_direction_set_init+0x34c>
  407cc8:	24630010 	addiu	v1,v1,16
  407ccc:	08101ec7 	j	407b1c <relay_gpio_direction_set_init+0x1c8>
  407cd0:	94420000 	lhu	v0,0(v0)
  407cd4:	3c020041 	lui	v0,0x41
  407cd8:	2442cb9c 	addiu	v0,v0,-13412
  407cdc:	27a30018 	addiu	v1,sp,24
  407ce0:	24440020 	addiu	a0,v0,32
  407ce4:	8c480000 	lw	t0,0(v0)
  407ce8:	8c470004 	lw	a3,4(v0)
  407cec:	8c460008 	lw	a2,8(v0)
  407cf0:	8c45000c 	lw	a1,12(v0)
  407cf4:	24420010 	addiu	v0,v0,16
  407cf8:	ac680000 	sw	t0,0(v1)
  407cfc:	ac670004 	sw	a3,4(v1)
  407d00:	ac660008 	sw	a2,8(v1)
  407d04:	ac65000c 	sw	a1,12(v1)
  407d08:	1444fff6 	bne	v0,a0,407ce4 <relay_gpio_direction_set_init+0x390>
  407d0c:	24630010 	addiu	v1,v1,16
  407d10:	08101ec7 	j	407b1c <relay_gpio_direction_set_init+0x1c8>
  407d14:	94420000 	lhu	v0,0(v0)
  407d18:	3c020041 	lui	v0,0x41
  407d1c:	2442cbc0 	addiu	v0,v0,-13376
  407d20:	27a30018 	addiu	v1,sp,24
  407d24:	24440020 	addiu	a0,v0,32
  407d28:	8c480000 	lw	t0,0(v0)
  407d2c:	8c470004 	lw	a3,4(v0)
  407d30:	8c460008 	lw	a2,8(v0)
  407d34:	8c45000c 	lw	a1,12(v0)
  407d38:	24420010 	addiu	v0,v0,16
  407d3c:	ac680000 	sw	t0,0(v1)
  407d40:	ac670004 	sw	a3,4(v1)
  407d44:	ac660008 	sw	a2,8(v1)
  407d48:	ac65000c 	sw	a1,12(v1)
  407d4c:	1444fff6 	bne	v0,a0,407d28 <relay_gpio_direction_set_init+0x3d4>
  407d50:	24630010 	addiu	v1,v1,16
  407d54:	08101ec7 	j	407b1c <relay_gpio_direction_set_init+0x1c8>
  407d58:	94420000 	lhu	v0,0(v0)
  407d5c:	3c020041 	lui	v0,0x41
  407d60:	2442cbe4 	addiu	v0,v0,-13340
  407d64:	27a30018 	addiu	v1,sp,24
  407d68:	24440020 	addiu	a0,v0,32
  407d6c:	8c480000 	lw	t0,0(v0)
  407d70:	8c470004 	lw	a3,4(v0)
  407d74:	8c460008 	lw	a2,8(v0)
  407d78:	8c45000c 	lw	a1,12(v0)
  407d7c:	24420010 	addiu	v0,v0,16
  407d80:	ac680000 	sw	t0,0(v1)
  407d84:	ac670004 	sw	a3,4(v1)
  407d88:	ac660008 	sw	a2,8(v1)
  407d8c:	ac65000c 	sw	a1,12(v1)
  407d90:	1444fff6 	bne	v0,a0,407d6c <relay_gpio_direction_set_init+0x418>
  407d94:	24630010 	addiu	v1,v1,16
  407d98:	08101ec7 	j	407b1c <relay_gpio_direction_set_init+0x1c8>
  407d9c:	94420000 	lhu	v0,0(v0)
  407da0:	3c020041 	lui	v0,0x41
  407da4:	2442cc08 	addiu	v0,v0,-13304
  407da8:	27a30018 	addiu	v1,sp,24
  407dac:	24440020 	addiu	a0,v0,32
  407db0:	8c480000 	lw	t0,0(v0)
  407db4:	8c470004 	lw	a3,4(v0)
  407db8:	8c460008 	lw	a2,8(v0)
  407dbc:	8c45000c 	lw	a1,12(v0)
  407dc0:	24420010 	addiu	v0,v0,16
  407dc4:	ac680000 	sw	t0,0(v1)
  407dc8:	ac670004 	sw	a3,4(v1)
  407dcc:	ac660008 	sw	a2,8(v1)
  407dd0:	ac65000c 	sw	a1,12(v1)
  407dd4:	1444fff6 	bne	v0,a0,407db0 <relay_gpio_direction_set_init+0x45c>
  407dd8:	24630010 	addiu	v1,v1,16
  407ddc:	08101ec7 	j	407b1c <relay_gpio_direction_set_init+0x1c8>
  407de0:	94420000 	lhu	v0,0(v0)
  407de4:	3c020041 	lui	v0,0x41
  407de8:	2442cc2c 	addiu	v0,v0,-13268
  407dec:	27a30018 	addiu	v1,sp,24
  407df0:	24440020 	addiu	a0,v0,32
  407df4:	8c480000 	lw	t0,0(v0)
  407df8:	8c470004 	lw	a3,4(v0)
  407dfc:	8c460008 	lw	a2,8(v0)
  407e00:	8c45000c 	lw	a1,12(v0)
  407e04:	24420010 	addiu	v0,v0,16
  407e08:	ac680000 	sw	t0,0(v1)
  407e0c:	ac670004 	sw	a3,4(v1)
  407e10:	ac660008 	sw	a2,8(v1)
  407e14:	ac65000c 	sw	a1,12(v1)
  407e18:	1444fff6 	bne	v0,a0,407df4 <relay_gpio_direction_set_init+0x4a0>
  407e1c:	24630010 	addiu	v1,v1,16
  407e20:	08101ec7 	j	407b1c <relay_gpio_direction_set_init+0x1c8>
  407e24:	94420000 	lhu	v0,0(v0)
  407e28:	3c020041 	lui	v0,0x41
  407e2c:	2442cc50 	addiu	v0,v0,-13232
  407e30:	27a30018 	addiu	v1,sp,24
  407e34:	24440020 	addiu	a0,v0,32
  407e38:	8c480000 	lw	t0,0(v0)
  407e3c:	8c470004 	lw	a3,4(v0)
  407e40:	8c460008 	lw	a2,8(v0)
  407e44:	8c45000c 	lw	a1,12(v0)
  407e48:	24420010 	addiu	v0,v0,16
  407e4c:	ac680000 	sw	t0,0(v1)
  407e50:	ac670004 	sw	a3,4(v1)
  407e54:	ac660008 	sw	a2,8(v1)
  407e58:	ac65000c 	sw	a1,12(v1)
  407e5c:	1444fff6 	bne	v0,a0,407e38 <relay_gpio_direction_set_init+0x4e4>
  407e60:	24630010 	addiu	v1,v1,16
  407e64:	08101ec7 	j	407b1c <relay_gpio_direction_set_init+0x1c8>
  407e68:	94420000 	lhu	v0,0(v0)
  407e6c:	3c020041 	lui	v0,0x41
  407e70:	2442cc74 	addiu	v0,v0,-13196
  407e74:	27a30018 	addiu	v1,sp,24
  407e78:	24440020 	addiu	a0,v0,32
  407e7c:	8c480000 	lw	t0,0(v0)
  407e80:	8c470004 	lw	a3,4(v0)
  407e84:	8c460008 	lw	a2,8(v0)
  407e88:	8c45000c 	lw	a1,12(v0)
  407e8c:	24420010 	addiu	v0,v0,16
  407e90:	ac680000 	sw	t0,0(v1)
  407e94:	ac670004 	sw	a3,4(v1)
  407e98:	ac660008 	sw	a2,8(v1)
  407e9c:	ac65000c 	sw	a1,12(v1)
  407ea0:	1444fff6 	bne	v0,a0,407e7c <relay_gpio_direction_set_init+0x528>
  407ea4:	24630010 	addiu	v1,v1,16
  407ea8:	08101ec7 	j	407b1c <relay_gpio_direction_set_init+0x1c8>
  407eac:	94420000 	lhu	v0,0(v0)
  407eb0:	3c020041 	lui	v0,0x41
  407eb4:	2442cc98 	addiu	v0,v0,-13160
  407eb8:	27a30018 	addiu	v1,sp,24
  407ebc:	24440020 	addiu	a0,v0,32
  407ec0:	8c480000 	lw	t0,0(v0)
  407ec4:	8c470004 	lw	a3,4(v0)
  407ec8:	8c460008 	lw	a2,8(v0)
  407ecc:	8c45000c 	lw	a1,12(v0)
  407ed0:	24420010 	addiu	v0,v0,16
  407ed4:	ac680000 	sw	t0,0(v1)
  407ed8:	ac670004 	sw	a3,4(v1)
  407edc:	ac660008 	sw	a2,8(v1)
  407ee0:	ac65000c 	sw	a1,12(v1)
  407ee4:	1444fff6 	bne	v0,a0,407ec0 <relay_gpio_direction_set_init+0x56c>
  407ee8:	24630010 	addiu	v1,v1,16
  407eec:	08101ec7 	j	407b1c <relay_gpio_direction_set_init+0x1c8>
  407ef0:	94420000 	lhu	v0,0(v0)
  407ef4:	3c020041 	lui	v0,0x41
  407ef8:	2442ccbc 	addiu	v0,v0,-13124
  407efc:	27a30018 	addiu	v1,sp,24
  407f00:	24440020 	addiu	a0,v0,32
  407f04:	8c480000 	lw	t0,0(v0)
  407f08:	8c470004 	lw	a3,4(v0)
  407f0c:	8c460008 	lw	a2,8(v0)
  407f10:	8c45000c 	lw	a1,12(v0)
  407f14:	24420010 	addiu	v0,v0,16
  407f18:	ac680000 	sw	t0,0(v1)
  407f1c:	ac670004 	sw	a3,4(v1)
  407f20:	ac660008 	sw	a2,8(v1)
  407f24:	ac65000c 	sw	a1,12(v1)
  407f28:	1444fff6 	bne	v0,a0,407f04 <relay_gpio_direction_set_init+0x5b0>
  407f2c:	24630010 	addiu	v1,v1,16
  407f30:	08101ec7 	j	407b1c <relay_gpio_direction_set_init+0x1c8>
  407f34:	94420000 	lhu	v0,0(v0)
  407f38:	3c020041 	lui	v0,0x41
  407f3c:	2442cce0 	addiu	v0,v0,-13088
  407f40:	27a30018 	addiu	v1,sp,24
  407f44:	24440020 	addiu	a0,v0,32
  407f48:	8c480000 	lw	t0,0(v0)
  407f4c:	8c470004 	lw	a3,4(v0)
  407f50:	8c460008 	lw	a2,8(v0)
  407f54:	8c45000c 	lw	a1,12(v0)
  407f58:	24420010 	addiu	v0,v0,16
  407f5c:	ac680000 	sw	t0,0(v1)
  407f60:	ac670004 	sw	a3,4(v1)
  407f64:	ac660008 	sw	a2,8(v1)
  407f68:	ac65000c 	sw	a1,12(v1)
  407f6c:	1444fff6 	bne	v0,a0,407f48 <relay_gpio_direction_set_init+0x5f4>
  407f70:	24630010 	addiu	v1,v1,16
  407f74:	08101ec7 	j	407b1c <relay_gpio_direction_set_init+0x1c8>
  407f78:	94420000 	lhu	v0,0(v0)
  407f7c:	3c020041 	lui	v0,0x41
  407f80:	2442cd04 	addiu	v0,v0,-13052
  407f84:	27a30018 	addiu	v1,sp,24
  407f88:	24440020 	addiu	a0,v0,32
  407f8c:	8c480000 	lw	t0,0(v0)
  407f90:	8c470004 	lw	a3,4(v0)
  407f94:	8c460008 	lw	a2,8(v0)
  407f98:	8c45000c 	lw	a1,12(v0)
  407f9c:	24420010 	addiu	v0,v0,16
  407fa0:	ac680000 	sw	t0,0(v1)
  407fa4:	ac670004 	sw	a3,4(v1)
  407fa8:	ac660008 	sw	a2,8(v1)
  407fac:	ac65000c 	sw	a1,12(v1)
  407fb0:	1444fff6 	bne	v0,a0,407f8c <relay_gpio_direction_set_init+0x638>
  407fb4:	24630010 	addiu	v1,v1,16
  407fb8:	08101ec7 	j	407b1c <relay_gpio_direction_set_init+0x1c8>
  407fbc:	94420000 	lhu	v0,0(v0)
  407fc0:	3c020041 	lui	v0,0x41
  407fc4:	2442cd28 	addiu	v0,v0,-13016
  407fc8:	27a30018 	addiu	v1,sp,24
  407fcc:	24440020 	addiu	a0,v0,32
  407fd0:	8c480000 	lw	t0,0(v0)
  407fd4:	8c470004 	lw	a3,4(v0)
  407fd8:	8c460008 	lw	a2,8(v0)
  407fdc:	8c45000c 	lw	a1,12(v0)
  407fe0:	24420010 	addiu	v0,v0,16
  407fe4:	ac680000 	sw	t0,0(v1)
  407fe8:	ac670004 	sw	a3,4(v1)
  407fec:	ac660008 	sw	a2,8(v1)
  407ff0:	ac65000c 	sw	a1,12(v1)
  407ff4:	1444fff6 	bne	v0,a0,407fd0 <relay_gpio_direction_set_init+0x67c>
  407ff8:	24630010 	addiu	v1,v1,16
  407ffc:	08101ec7 	j	407b1c <relay_gpio_direction_set_init+0x1c8>
  408000:	94420000 	lhu	v0,0(v0)
  408004:	3c020041 	lui	v0,0x41
  408008:	2442cd4c 	addiu	v0,v0,-12980
  40800c:	27a30018 	addiu	v1,sp,24
  408010:	24440020 	addiu	a0,v0,32
  408014:	8c480000 	lw	t0,0(v0)
  408018:	8c470004 	lw	a3,4(v0)
  40801c:	8c460008 	lw	a2,8(v0)
  408020:	8c45000c 	lw	a1,12(v0)
  408024:	24420010 	addiu	v0,v0,16
  408028:	ac680000 	sw	t0,0(v1)
  40802c:	ac670004 	sw	a3,4(v1)
  408030:	ac660008 	sw	a2,8(v1)
  408034:	ac65000c 	sw	a1,12(v1)
  408038:	1444fff6 	bne	v0,a0,408014 <relay_gpio_direction_set_init+0x6c0>
  40803c:	24630010 	addiu	v1,v1,16
  408040:	08101ec7 	j	407b1c <relay_gpio_direction_set_init+0x1c8>
  408044:	94420000 	lhu	v0,0(v0)
  408048:	3c020041 	lui	v0,0x41
  40804c:	2442cd70 	addiu	v0,v0,-12944
  408050:	27a30018 	addiu	v1,sp,24
  408054:	24440020 	addiu	a0,v0,32
  408058:	8c480000 	lw	t0,0(v0)
  40805c:	8c470004 	lw	a3,4(v0)
  408060:	8c460008 	lw	a2,8(v0)
  408064:	8c45000c 	lw	a1,12(v0)
  408068:	24420010 	addiu	v0,v0,16
  40806c:	ac680000 	sw	t0,0(v1)
  408070:	ac670004 	sw	a3,4(v1)
  408074:	ac660008 	sw	a2,8(v1)
  408078:	ac65000c 	sw	a1,12(v1)
  40807c:	1444fff6 	bne	v0,a0,408058 <relay_gpio_direction_set_init+0x704>
  408080:	24630010 	addiu	v1,v1,16
  408084:	08101ec7 	j	407b1c <relay_gpio_direction_set_init+0x1c8>
  408088:	94420000 	lhu	v0,0(v0)
  40808c:	02a01021 	move	v0,s5
  408090:	27a30018 	addiu	v1,sp,24
  408094:	26a40020 	addiu	a0,s5,32
  408098:	8c480000 	lw	t0,0(v0)
  40809c:	8c470004 	lw	a3,4(v0)
  4080a0:	8c460008 	lw	a2,8(v0)
  4080a4:	8c45000c 	lw	a1,12(v0)
  4080a8:	24420010 	addiu	v0,v0,16
  4080ac:	ac680000 	sw	t0,0(v1)
  4080b0:	ac670004 	sw	a3,4(v1)
  4080b4:	ac660008 	sw	a2,8(v1)
  4080b8:	ac65000c 	sw	a1,12(v1)
  4080bc:	1444fff6 	bne	v0,a0,408098 <relay_gpio_direction_set_init+0x744>
  4080c0:	24630010 	addiu	v1,v1,16
  4080c4:	08101ec7 	j	407b1c <relay_gpio_direction_set_init+0x1c8>
  4080c8:	94420000 	lhu	v0,0(v0)
  4080cc:	3c020041 	lui	v0,0x41
  4080d0:	2442cd94 	addiu	v0,v0,-12908
  4080d4:	27a30018 	addiu	v1,sp,24
  4080d8:	24440020 	addiu	a0,v0,32
  4080dc:	8c480000 	lw	t0,0(v0)
  4080e0:	8c470004 	lw	a3,4(v0)
  4080e4:	8c460008 	lw	a2,8(v0)
  4080e8:	8c45000c 	lw	a1,12(v0)
  4080ec:	24420010 	addiu	v0,v0,16
  4080f0:	ac680000 	sw	t0,0(v1)
  4080f4:	ac670004 	sw	a3,4(v1)
  4080f8:	ac660008 	sw	a2,8(v1)
  4080fc:	ac65000c 	sw	a1,12(v1)
  408100:	1444fff6 	bne	v0,a0,4080dc <relay_gpio_direction_set_init+0x788>
  408104:	24630010 	addiu	v1,v1,16
  408108:	08101ec7 	j	407b1c <relay_gpio_direction_set_init+0x1c8>
  40810c:	94420000 	lhu	v0,0(v0)
  408110:	3c020041 	lui	v0,0x41
  408114:	2442cdb8 	addiu	v0,v0,-12872
  408118:	27a30018 	addiu	v1,sp,24
  40811c:	24440020 	addiu	a0,v0,32
  408120:	8c480000 	lw	t0,0(v0)
  408124:	8c470004 	lw	a3,4(v0)
  408128:	8c460008 	lw	a2,8(v0)
  40812c:	8c45000c 	lw	a1,12(v0)
  408130:	24420010 	addiu	v0,v0,16
  408134:	ac680000 	sw	t0,0(v1)
  408138:	ac670004 	sw	a3,4(v1)
  40813c:	ac660008 	sw	a2,8(v1)
  408140:	ac65000c 	sw	a1,12(v1)
  408144:	1444fff6 	bne	v0,a0,408120 <relay_gpio_direction_set_init+0x7cc>
  408148:	24630010 	addiu	v1,v1,16
  40814c:	08101ec7 	j	407b1c <relay_gpio_direction_set_init+0x1c8>
  408150:	94420000 	lhu	v0,0(v0)
  408154:	3c020041 	lui	v0,0x41
  408158:	2442cddc 	addiu	v0,v0,-12836
  40815c:	27a30018 	addiu	v1,sp,24
  408160:	24440020 	addiu	a0,v0,32
  408164:	8c480000 	lw	t0,0(v0)
  408168:	8c470004 	lw	a3,4(v0)
  40816c:	8c460008 	lw	a2,8(v0)
  408170:	8c45000c 	lw	a1,12(v0)
  408174:	24420010 	addiu	v0,v0,16
  408178:	ac680000 	sw	t0,0(v1)
  40817c:	ac670004 	sw	a3,4(v1)
  408180:	ac660008 	sw	a2,8(v1)
  408184:	ac65000c 	sw	a1,12(v1)
  408188:	1444fff6 	bne	v0,a0,408164 <relay_gpio_direction_set_init+0x810>
  40818c:	24630010 	addiu	v1,v1,16
  408190:	08101ec7 	j	407b1c <relay_gpio_direction_set_init+0x1c8>
  408194:	94420000 	lhu	v0,0(v0)
  408198:	3c020041 	lui	v0,0x41
  40819c:	2442ce00 	addiu	v0,v0,-12800
  4081a0:	27a30018 	addiu	v1,sp,24
  4081a4:	24440020 	addiu	a0,v0,32
  4081a8:	8c480000 	lw	t0,0(v0)
  4081ac:	8c470004 	lw	a3,4(v0)
  4081b0:	8c460008 	lw	a2,8(v0)
  4081b4:	8c45000c 	lw	a1,12(v0)
  4081b8:	24420010 	addiu	v0,v0,16
  4081bc:	ac680000 	sw	t0,0(v1)
  4081c0:	ac670004 	sw	a3,4(v1)
  4081c4:	ac660008 	sw	a2,8(v1)
  4081c8:	ac65000c 	sw	a1,12(v1)
  4081cc:	1444fff6 	bne	v0,a0,4081a8 <relay_gpio_direction_set_init+0x854>
  4081d0:	24630010 	addiu	v1,v1,16
  4081d4:	08101ec7 	j	407b1c <relay_gpio_direction_set_init+0x1c8>
  4081d8:	94420000 	lhu	v0,0(v0)
  4081dc:	3c020041 	lui	v0,0x41
  4081e0:	2442ce24 	addiu	v0,v0,-12764
  4081e4:	27a30018 	addiu	v1,sp,24
  4081e8:	24440020 	addiu	a0,v0,32
  4081ec:	8c480000 	lw	t0,0(v0)
  4081f0:	8c470004 	lw	a3,4(v0)
  4081f4:	8c460008 	lw	a2,8(v0)
  4081f8:	8c45000c 	lw	a1,12(v0)
  4081fc:	24420010 	addiu	v0,v0,16
  408200:	ac680000 	sw	t0,0(v1)
  408204:	ac670004 	sw	a3,4(v1)
  408208:	ac660008 	sw	a2,8(v1)
  40820c:	ac65000c 	sw	a1,12(v1)
  408210:	1444fff6 	bne	v0,a0,4081ec <relay_gpio_direction_set_init+0x898>
  408214:	24630010 	addiu	v1,v1,16
  408218:	08101ec7 	j	407b1c <relay_gpio_direction_set_init+0x1c8>
  40821c:	94420000 	lhu	v0,0(v0)
  408220:	3c020041 	lui	v0,0x41
  408224:	2442ce48 	addiu	v0,v0,-12728
  408228:	27a30018 	addiu	v1,sp,24
  40822c:	24440020 	addiu	a0,v0,32
  408230:	8c480000 	lw	t0,0(v0)
  408234:	8c470004 	lw	a3,4(v0)
  408238:	8c460008 	lw	a2,8(v0)
  40823c:	8c45000c 	lw	a1,12(v0)
  408240:	24420010 	addiu	v0,v0,16
  408244:	ac680000 	sw	t0,0(v1)
  408248:	ac670004 	sw	a3,4(v1)
  40824c:	ac660008 	sw	a2,8(v1)
  408250:	ac65000c 	sw	a1,12(v1)
  408254:	1444fff6 	bne	v0,a0,408230 <relay_gpio_direction_set_init+0x8dc>
  408258:	24630010 	addiu	v1,v1,16
  40825c:	08101ec7 	j	407b1c <relay_gpio_direction_set_init+0x1c8>
  408260:	94420000 	lhu	v0,0(v0)
  408264:	02601021 	move	v0,s3
  408268:	27a30018 	addiu	v1,sp,24
  40826c:	8c470000 	lw	a3,0(v0)
  408270:	8c460004 	lw	a2,4(v0)
  408274:	8c450008 	lw	a1,8(v0)
  408278:	8c44000c 	lw	a0,12(v0)
  40827c:	24420010 	addiu	v0,v0,16
  408280:	ac670000 	sw	a3,0(v1)
  408284:	ac660004 	sw	a2,4(v1)
  408288:	ac650008 	sw	a1,8(v1)
  40828c:	ac64000c 	sw	a0,12(v1)
  408290:	1456fff6 	bne	v0,s6,40826c <relay_gpio_direction_set_init+0x918>
  408294:	24630010 	addiu	v1,v1,16
  408298:	96c20000 	lhu	v0,0(s6)
  40829c:	08101ec8 	j	407b20 <relay_gpio_direction_set_init+0x1cc>
  4082a0:	a4620000 	sh	v0,0(v1)

004082a4 <relay_gpio_value_set_init>:
  4082a4:	27bdff70 	addiu	sp,sp,-144
  4082a8:	afb60080 	sw	s6,128(sp)
  4082ac:	3c160041 	lui	s6,0x41
  4082b0:	8ec2d25c 	lw	v0,-11684(s6)
  4082b4:	afb5007c 	sw	s5,124(sp)
  4082b8:	afb40078 	sw	s4,120(sp)
  4082bc:	3c1c0042 	lui	gp,0x42
  4082c0:	3c150041 	lui	s5,0x41
  4082c4:	3c140041 	lui	s4,0x41
  4082c8:	279c5520 	addiu	gp,gp,21792
  4082cc:	afa2005c 	sw	v0,92(sp)
  4082d0:	8ea9d23c 	lw	t1,-11716(s5)
  4082d4:	8e82d1fc 	lw	v0,-11780(s4)
  4082d8:	afb20070 	sw	s2,112(sp)
  4082dc:	8f9280b4 	lw	s2,-32588(gp)
  4082e0:	afbe0088 	sw	s8,136(sp)
  4082e4:	afb70084 	sw	s7,132(sp)
  4082e8:	afb30074 	sw	s3,116(sp)
  4082ec:	afb00068 	sw	s0,104(sp)
  4082f0:	afbf008c 	sw	ra,140(sp)
  4082f4:	afb1006c 	sw	s1,108(sp)
  4082f8:	afbc0010 	sw	gp,16(sp)
  4082fc:	afa90060 	sw	t1,96(sp)
  408300:	afa20058 	sw	v0,88(sp)
  408304:	24130001 	li	s3,1
  408308:	00008021 	move	s0,zero
  40830c:	3c1e0041 	lui	s8,0x41
  408310:	3c170041 	lui	s7,0x41
  408314:	8f998184 	lw	t9,-32380(gp)
  408318:	27a40018 	addiu	a0,sp,24
  40831c:	00002821 	move	a1,zero
  408320:	0320f809 	jalr	t9
  408324:	24060040 	li	a2,64
  408328:	12000059 	beqz	s0,408490 <relay_gpio_value_set_init+0x1ec>
  40832c:	8fbc0010 	lw	gp,16(sp)
  408330:	24020001 	li	v0,1
  408334:	12020094 	beq	s0,v0,408588 <relay_gpio_value_set_init+0x2e4>
  408338:	3c030041 	lui	v1,0x41
  40833c:	24020002 	li	v0,2
  408340:	12020094 	beq	s0,v0,408594 <relay_gpio_value_set_init+0x2f0>
  408344:	3c030041 	lui	v1,0x41
  408348:	24020003 	li	v0,3
  40834c:	12020094 	beq	s0,v0,4085a0 <relay_gpio_value_set_init+0x2fc>
  408350:	3c030041 	lui	v1,0x41
  408354:	24020004 	li	v0,4
  408358:	12020094 	beq	s0,v0,4085ac <relay_gpio_value_set_init+0x308>
  40835c:	3c030041 	lui	v1,0x41
  408360:	24020005 	li	v0,5
  408364:	12020094 	beq	s0,v0,4085b8 <relay_gpio_value_set_init+0x314>
  408368:	3c030041 	lui	v1,0x41
  40836c:	24020006 	li	v0,6
  408370:	12020094 	beq	s0,v0,4085c4 <relay_gpio_value_set_init+0x320>
  408374:	3c030041 	lui	v1,0x41
  408378:	24020007 	li	v0,7
  40837c:	12020094 	beq	s0,v0,4085d0 <relay_gpio_value_set_init+0x32c>
  408380:	3c030041 	lui	v1,0x41
  408384:	24020008 	li	v0,8
  408388:	12020094 	beq	s0,v0,4085dc <relay_gpio_value_set_init+0x338>
  40838c:	3c030041 	lui	v1,0x41
  408390:	24020009 	li	v0,9
  408394:	12020094 	beq	s0,v0,4085e8 <relay_gpio_value_set_init+0x344>
  408398:	3c030041 	lui	v1,0x41
  40839c:	2402000a 	li	v0,10
  4083a0:	12020094 	beq	s0,v0,4085f4 <relay_gpio_value_set_init+0x350>
  4083a4:	3c030041 	lui	v1,0x41
  4083a8:	2402000b 	li	v0,11
  4083ac:	12020094 	beq	s0,v0,408600 <relay_gpio_value_set_init+0x35c>
  4083b0:	3c030041 	lui	v1,0x41
  4083b4:	2402000c 	li	v0,12
  4083b8:	12020094 	beq	s0,v0,40860c <relay_gpio_value_set_init+0x368>
  4083bc:	3c030041 	lui	v1,0x41
  4083c0:	2402000d 	li	v0,13
  4083c4:	12020094 	beq	s0,v0,408618 <relay_gpio_value_set_init+0x374>
  4083c8:	3c030041 	lui	v1,0x41
  4083cc:	2402000e 	li	v0,14
  4083d0:	12020094 	beq	s0,v0,408624 <relay_gpio_value_set_init+0x380>
  4083d4:	3c030041 	lui	v1,0x41
  4083d8:	2402000f 	li	v0,15
  4083dc:	12020094 	beq	s0,v0,408630 <relay_gpio_value_set_init+0x38c>
  4083e0:	3c030041 	lui	v1,0x41
  4083e4:	24020010 	li	v0,16
  4083e8:	12020094 	beq	s0,v0,40863c <relay_gpio_value_set_init+0x398>
  4083ec:	3c030041 	lui	v1,0x41
  4083f0:	24020011 	li	v0,17
  4083f4:	12020094 	beq	s0,v0,408648 <relay_gpio_value_set_init+0x3a4>
  4083f8:	3c030041 	lui	v1,0x41
  4083fc:	24020012 	li	v0,18
  408400:	12020094 	beq	s0,v0,408654 <relay_gpio_value_set_init+0x3b0>
  408404:	3c030041 	lui	v1,0x41
  408408:	24020013 	li	v0,19
  40840c:	1202009e 	beq	s0,v0,408688 <relay_gpio_value_set_init+0x3e4>
  408410:	3c030041 	lui	v1,0x41
  408414:	24020014 	li	v0,20
  408418:	1202009e 	beq	s0,v0,408694 <relay_gpio_value_set_init+0x3f0>
  40841c:	3c030041 	lui	v1,0x41
  408420:	24020015 	li	v0,21
  408424:	1202009e 	beq	s0,v0,4086a0 <relay_gpio_value_set_init+0x3fc>
  408428:	3c030041 	lui	v1,0x41
  40842c:	24020016 	li	v0,22
  408430:	1202009e 	beq	s0,v0,4086ac <relay_gpio_value_set_init+0x408>
  408434:	3c030041 	lui	v1,0x41
  408438:	24020017 	li	v0,23
  40843c:	1202009e 	beq	s0,v0,4086b8 <relay_gpio_value_set_init+0x414>
  408440:	26e2d1dc 	addiu	v0,s7,-11812
  408444:	24020018 	li	v0,24
  408448:	1202009d 	beq	s0,v0,4086c0 <relay_gpio_value_set_init+0x41c>
  40844c:	2682d1fc 	addiu	v0,s4,-11780
  408450:	24020019 	li	v0,25
  408454:	120200a3 	beq	s0,v0,4086e4 <relay_gpio_value_set_init+0x440>
  408458:	27c2d21c 	addiu	v0,s8,-11748
  40845c:	2402001a 	li	v0,26
  408460:	1202007f 	beq	s0,v0,408660 <relay_gpio_value_set_init+0x3bc>
  408464:	00000000 	nop
  408468:	26c2d25c 	addiu	v0,s6,-11684
  40846c:	8c480004 	lw	t0,4(v0)
  408470:	8c470008 	lw	a3,8(v0)
  408474:	8c46000c 	lw	a2,12(v0)
  408478:	8c450010 	lw	a1,16(v0)
  40847c:	8c440014 	lw	a0,20(v0)
  408480:	8c430018 	lw	v1,24(v0)
  408484:	8fa9005c 	lw	t1,92(sp)
  408488:	0810212e 	j	4084b8 <relay_gpio_value_set_init+0x214>
  40848c:	9442001c 	lhu	v0,28(v0)
  408490:	3c030041 	lui	v1,0x41
  408494:	8c69cefc 	lw	t1,-12548(v1)
  408498:	2462cefc 	addiu	v0,v1,-12548
  40849c:	8c480004 	lw	t0,4(v0)
  4084a0:	8c470008 	lw	a3,8(v0)
  4084a4:	8c46000c 	lw	a2,12(v0)
  4084a8:	8c450010 	lw	a1,16(v0)
  4084ac:	8c440014 	lw	a0,20(v0)
  4084b0:	8c430018 	lw	v1,24(v0)
  4084b4:	9442001c 	lhu	v0,28(v0)
  4084b8:	8f9981a4 	lw	t9,-32348(gp)
  4084bc:	afa50028 	sw	a1,40(sp)
  4084c0:	afa4002c 	sw	a0,44(sp)
  4084c4:	afa90018 	sw	t1,24(sp)
  4084c8:	afa8001c 	sw	t0,28(sp)
  4084cc:	afa70020 	sw	a3,32(sp)
  4084d0:	afa60024 	sw	a2,36(sp)
  4084d4:	afa30030 	sw	v1,48(sp)
  4084d8:	a7a20034 	sh	v0,52(sp)
  4084dc:	27a40018 	addiu	a0,sp,24
  4084e0:	0320f809 	jalr	t9
  4084e4:	24050001 	li	a1,1
  4084e8:	00408821 	move	s1,v0
  4084ec:	8fbc0010 	lw	gp,16(sp)
  4084f0:	ae420000 	sw	v0,0(s2)
  4084f4:	2402ffff 	li	v0,-1
  4084f8:	1222001c 	beq	s1,v0,40856c <relay_gpio_value_set_init+0x2c8>
  4084fc:	8f998190 	lw	t9,-32368(gp)
  408500:	3c050041 	lui	a1,0x41
  408504:	02202021 	move	a0,s1
  408508:	24a5d27c 	addiu	a1,a1,-11652
  40850c:	0320f809 	jalr	t9
  408510:	24060002 	li	a2,2
  408514:	8fbc0010 	lw	gp,16(sp)
  408518:	26100001 	addiu	s0,s0,1
  40851c:	2402001c 	li	v0,28
  408520:	26730001 	addiu	s3,s3,1
  408524:	1602ff7b 	bne	s0,v0,408314 <relay_gpio_value_set_init+0x70>
  408528:	26520004 	addiu	s2,s2,4
  40852c:	8f998144 	lw	t9,-32444(gp)
  408530:	0320f809 	jalr	t9
  408534:	02202021 	move	a0,s1
  408538:	8fbf008c 	lw	ra,140(sp)
  40853c:	8fbe0088 	lw	s8,136(sp)
  408540:	8fb70084 	lw	s7,132(sp)
  408544:	8fb60080 	lw	s6,128(sp)
  408548:	8fb5007c 	lw	s5,124(sp)
  40854c:	8fb40078 	lw	s4,120(sp)
  408550:	8fb30074 	lw	s3,116(sp)
  408554:	8fb20070 	lw	s2,112(sp)
  408558:	8fb1006c 	lw	s1,108(sp)
  40855c:	8fb00068 	lw	s0,104(sp)
  408560:	24020001 	li	v0,1
  408564:	03e00008 	jr	ra
  408568:	27bd0090 	addiu	sp,sp,144
  40856c:	8f9981f8 	lw	t9,-32264(gp)
  408570:	3c040041 	lui	a0,0x41
  408574:	2484ca10 	addiu	a0,a0,-13808
  408578:	0320f809 	jalr	t9
  40857c:	02602821 	move	a1,s3
  408580:	08102146 	j	408518 <relay_gpio_value_set_init+0x274>
  408584:	8fbc0010 	lw	gp,16(sp)
  408588:	2462cf1c 	addiu	v0,v1,-12516
  40858c:	08102127 	j	40849c <relay_gpio_value_set_init+0x1f8>
  408590:	8c69cf1c 	lw	t1,-12516(v1)
  408594:	2462cf3c 	addiu	v0,v1,-12484
  408598:	08102127 	j	40849c <relay_gpio_value_set_init+0x1f8>
  40859c:	8c69cf3c 	lw	t1,-12484(v1)
  4085a0:	2462cf5c 	addiu	v0,v1,-12452
  4085a4:	08102127 	j	40849c <relay_gpio_value_set_init+0x1f8>
  4085a8:	8c69cf5c 	lw	t1,-12452(v1)
  4085ac:	2462cf7c 	addiu	v0,v1,-12420
  4085b0:	08102127 	j	40849c <relay_gpio_value_set_init+0x1f8>
  4085b4:	8c69cf7c 	lw	t1,-12420(v1)
  4085b8:	2462cf9c 	addiu	v0,v1,-12388
  4085bc:	08102127 	j	40849c <relay_gpio_value_set_init+0x1f8>
  4085c0:	8c69cf9c 	lw	t1,-12388(v1)
  4085c4:	2462cfbc 	addiu	v0,v1,-12356
  4085c8:	08102127 	j	40849c <relay_gpio_value_set_init+0x1f8>
  4085cc:	8c69cfbc 	lw	t1,-12356(v1)
  4085d0:	2462cfdc 	addiu	v0,v1,-12324
  4085d4:	08102127 	j	40849c <relay_gpio_value_set_init+0x1f8>
  4085d8:	8c69cfdc 	lw	t1,-12324(v1)
  4085dc:	2462cffc 	addiu	v0,v1,-12292
  4085e0:	08102127 	j	40849c <relay_gpio_value_set_init+0x1f8>
  4085e4:	8c69cffc 	lw	t1,-12292(v1)
  4085e8:	2462d01c 	addiu	v0,v1,-12260
  4085ec:	08102127 	j	40849c <relay_gpio_value_set_init+0x1f8>
  4085f0:	8c69d01c 	lw	t1,-12260(v1)
  4085f4:	2462d03c 	addiu	v0,v1,-12228
  4085f8:	08102127 	j	40849c <relay_gpio_value_set_init+0x1f8>
  4085fc:	8c69d03c 	lw	t1,-12228(v1)
  408600:	2462d05c 	addiu	v0,v1,-12196
  408604:	08102127 	j	40849c <relay_gpio_value_set_init+0x1f8>
  408608:	8c69d05c 	lw	t1,-12196(v1)
  40860c:	2462d07c 	addiu	v0,v1,-12164
  408610:	08102127 	j	40849c <relay_gpio_value_set_init+0x1f8>
  408614:	8c69d07c 	lw	t1,-12164(v1)
  408618:	2462d09c 	addiu	v0,v1,-12132
  40861c:	08102127 	j	40849c <relay_gpio_value_set_init+0x1f8>
  408620:	8c69d09c 	lw	t1,-12132(v1)
  408624:	2462d0bc 	addiu	v0,v1,-12100
  408628:	08102127 	j	40849c <relay_gpio_value_set_init+0x1f8>
  40862c:	8c69d0bc 	lw	t1,-12100(v1)
  408630:	2462d0dc 	addiu	v0,v1,-12068
  408634:	08102127 	j	40849c <relay_gpio_value_set_init+0x1f8>
  408638:	8c69d0dc 	lw	t1,-12068(v1)
  40863c:	2462d0fc 	addiu	v0,v1,-12036
  408640:	08102127 	j	40849c <relay_gpio_value_set_init+0x1f8>
  408644:	8c69d0fc 	lw	t1,-12036(v1)
  408648:	2462d11c 	addiu	v0,v1,-12004
  40864c:	08102127 	j	40849c <relay_gpio_value_set_init+0x1f8>
  408650:	8c69d11c 	lw	t1,-12004(v1)
  408654:	2462d13c 	addiu	v0,v1,-11972
  408658:	08102127 	j	40849c <relay_gpio_value_set_init+0x1f8>
  40865c:	8c69d13c 	lw	t1,-11972(v1)
  408660:	26a2d23c 	addiu	v0,s5,-11716
  408664:	8c480004 	lw	t0,4(v0)
  408668:	8c470008 	lw	a3,8(v0)
  40866c:	8c46000c 	lw	a2,12(v0)
  408670:	8c450010 	lw	a1,16(v0)
  408674:	8c440014 	lw	a0,20(v0)
  408678:	8c430018 	lw	v1,24(v0)
  40867c:	8fa90060 	lw	t1,96(sp)
  408680:	0810212e 	j	4084b8 <relay_gpio_value_set_init+0x214>
  408684:	9442001c 	lhu	v0,28(v0)
  408688:	2462d15c 	addiu	v0,v1,-11940
  40868c:	08102127 	j	40849c <relay_gpio_value_set_init+0x1f8>
  408690:	8c69d15c 	lw	t1,-11940(v1)
  408694:	2462d17c 	addiu	v0,v1,-11908
  408698:	08102127 	j	40849c <relay_gpio_value_set_init+0x1f8>
  40869c:	8c69d17c 	lw	t1,-11908(v1)
  4086a0:	2462d19c 	addiu	v0,v1,-11876
  4086a4:	08102127 	j	40849c <relay_gpio_value_set_init+0x1f8>
  4086a8:	8c69d19c 	lw	t1,-11876(v1)
  4086ac:	2462d1bc 	addiu	v0,v1,-11844
  4086b0:	08102127 	j	40849c <relay_gpio_value_set_init+0x1f8>
  4086b4:	8c69d1bc 	lw	t1,-11844(v1)
  4086b8:	08102127 	j	40849c <relay_gpio_value_set_init+0x1f8>
  4086bc:	8ee9d1dc 	lw	t1,-11812(s7)
  4086c0:	8c480004 	lw	t0,4(v0)
  4086c4:	8c470008 	lw	a3,8(v0)
  4086c8:	8c46000c 	lw	a2,12(v0)
  4086cc:	8c450010 	lw	a1,16(v0)
  4086d0:	8c440014 	lw	a0,20(v0)
  4086d4:	8c430018 	lw	v1,24(v0)
  4086d8:	8fa90058 	lw	t1,88(sp)
  4086dc:	0810212e 	j	4084b8 <relay_gpio_value_set_init+0x214>
  4086e0:	9442001c 	lhu	v0,28(v0)
  4086e4:	08102127 	j	40849c <relay_gpio_value_set_init+0x1f8>
  4086e8:	8fc9d21c 	lw	t1,-11748(s8)

004086ec <relay_on_off_set>:
  4086ec:	2484ffff 	addiu	a0,a0,-1
  4086f0:	000410c0 	sll	v0,a0,0x3
  4086f4:	00442023 	subu	a0,v0,a0
  4086f8:	3c1c0042 	lui	gp,0x42
  4086fc:	00852821 	addu	a1,a0,a1
  408700:	27bdffe0 	addiu	sp,sp,-32
  408704:	279c5520 	addiu	gp,gp,21792
  408708:	2ca2001d 	sltiu	v0,a1,29
  40870c:	afbf001c 	sw	ra,28(sp)
  408710:	10400020 	beqz	v0,408794 <relay_on_off_set+0xa8>
  408714:	afbc0010 	sw	gp,16(sp)
  408718:	10c00010 	beqz	a2,40875c <relay_on_off_set+0x70>
  40871c:	24020001 	li	v0,1
  408720:	14c2001c 	bne	a2,v0,408794 <relay_on_off_set+0xa8>
  408724:	8f8280b4 	lw	v0,-32588(gp)
  408728:	24a5ffff 	addiu	a1,a1,-1
  40872c:	00052880 	sll	a1,a1,0x2
  408730:	00452821 	addu	a1,v0,a1
  408734:	8f998190 	lw	t9,-32368(gp)
  408738:	8ca40000 	lw	a0,0(a1)
  40873c:	3c050041 	lui	a1,0x41
  408740:	24a5d27c 	addiu	a1,a1,-11652
  408744:	0320f809 	jalr	t9
  408748:	24060002 	li	a2,2
  40874c:	8fbf001c 	lw	ra,28(sp)
  408750:	24020001 	li	v0,1
  408754:	03e00008 	jr	ra
  408758:	27bd0020 	addiu	sp,sp,32
  40875c:	8f8280b4 	lw	v0,-32588(gp)
  408760:	24a5ffff 	addiu	a1,a1,-1
  408764:	00052880 	sll	a1,a1,0x2
  408768:	00452821 	addu	a1,v0,a1
  40876c:	8f998190 	lw	t9,-32368(gp)
  408770:	8ca40000 	lw	a0,0(a1)
  408774:	3c050041 	lui	a1,0x41
  408778:	24a5d280 	addiu	a1,a1,-11648
  40877c:	0320f809 	jalr	t9
  408780:	24060002 	li	a2,2
  408784:	8fbf001c 	lw	ra,28(sp)
  408788:	24020001 	li	v0,1
  40878c:	03e00008 	jr	ra
  408790:	27bd0020 	addiu	sp,sp,32
  408794:	8fbf001c 	lw	ra,28(sp)
  408798:	2402ffff 	li	v0,-1
  40879c:	03e00008 	jr	ra
  4087a0:	27bd0020 	addiu	sp,sp,32

004087a4 <slow_lane_pass>:
  4087a4:	3c1c0042 	lui	gp,0x42
  4087a8:	27bdffd8 	addiu	sp,sp,-40
  4087ac:	279c5520 	addiu	gp,gp,21792
  4087b0:	afb00018 	sw	s0,24(sp)
  4087b4:	8f9080b4 	lw	s0,-32588(gp)
  4087b8:	afb20020 	sw	s2,32(sp)
  4087bc:	8f998190 	lw	t9,-32368(gp)
  4087c0:	3c120041 	lui	s2,0x41
  4087c4:	8e040000 	lw	a0,0(s0)
  4087c8:	afbf0024 	sw	ra,36(sp)
  4087cc:	afb1001c 	sw	s1,28(sp)
  4087d0:	afbc0010 	sw	gp,16(sp)
  4087d4:	2645d280 	addiu	a1,s2,-11648
  4087d8:	0320f809 	jalr	t9
  4087dc:	24060002 	li	a2,2
  4087e0:	8fbc0010 	lw	gp,16(sp)
  4087e4:	3c110041 	lui	s1,0x41
  4087e8:	8e040004 	lw	a0,4(s0)
  4087ec:	8f998190 	lw	t9,-32368(gp)
  4087f0:	2625d27c 	addiu	a1,s1,-11652
  4087f4:	0320f809 	jalr	t9
  4087f8:	24060002 	li	a2,2
  4087fc:	8fbc0010 	lw	gp,16(sp)
  408800:	8e040008 	lw	a0,8(s0)
  408804:	8f998190 	lw	t9,-32368(gp)
  408808:	2625d27c 	addiu	a1,s1,-11652
  40880c:	0320f809 	jalr	t9
  408810:	24060002 	li	a2,2
  408814:	8fbc0010 	lw	gp,16(sp)
  408818:	8e04000c 	lw	a0,12(s0)
  40881c:	8f998190 	lw	t9,-32368(gp)
  408820:	2625d27c 	addiu	a1,s1,-11652
  408824:	0320f809 	jalr	t9
  408828:	24060002 	li	a2,2
  40882c:	8fbc0010 	lw	gp,16(sp)
  408830:	8e040010 	lw	a0,16(s0)
  408834:	8f998190 	lw	t9,-32368(gp)
  408838:	2645d280 	addiu	a1,s2,-11648
  40883c:	0320f809 	jalr	t9
  408840:	24060002 	li	a2,2
  408844:	8fbc0010 	lw	gp,16(sp)
  408848:	8e040014 	lw	a0,20(s0)
  40884c:	8f998190 	lw	t9,-32368(gp)
  408850:	2625d27c 	addiu	a1,s1,-11652
  408854:	0320f809 	jalr	t9
  408858:	24060002 	li	a2,2
  40885c:	8fbf0024 	lw	ra,36(sp)
  408860:	8fb20020 	lw	s2,32(sp)
  408864:	8fb1001c 	lw	s1,28(sp)
  408868:	8fb00018 	lw	s0,24(sp)
  40886c:	24020001 	li	v0,1
  408870:	03e00008 	jr	ra
  408874:	27bd0028 	addiu	sp,sp,40

00408878 <slow_lane_forbid>:
  408878:	3c1c0042 	lui	gp,0x42
  40887c:	27bdffd8 	addiu	sp,sp,-40
  408880:	279c5520 	addiu	gp,gp,21792
  408884:	afb00018 	sw	s0,24(sp)
  408888:	8f9080b4 	lw	s0,-32588(gp)
  40888c:	afb1001c 	sw	s1,28(sp)
  408890:	8f998190 	lw	t9,-32368(gp)
  408894:	3c110041 	lui	s1,0x41
  408898:	8e040000 	lw	a0,0(s0)
  40889c:	afbf0024 	sw	ra,36(sp)
  4088a0:	afb20020 	sw	s2,32(sp)
  4088a4:	afbc0010 	sw	gp,16(sp)
  4088a8:	2625d27c 	addiu	a1,s1,-11652
  4088ac:	0320f809 	jalr	t9
  4088b0:	24060002 	li	a2,2
  4088b4:	8fbc0010 	lw	gp,16(sp)
  4088b8:	3c120041 	lui	s2,0x41
  4088bc:	8e040004 	lw	a0,4(s0)
  4088c0:	8f998190 	lw	t9,-32368(gp)
  4088c4:	2645d280 	addiu	a1,s2,-11648
  4088c8:	0320f809 	jalr	t9
  4088cc:	24060002 	li	a2,2
  4088d0:	8fbc0010 	lw	gp,16(sp)
  4088d4:	8e040008 	lw	a0,8(s0)
  4088d8:	8f998190 	lw	t9,-32368(gp)
  4088dc:	2625d27c 	addiu	a1,s1,-11652
  4088e0:	0320f809 	jalr	t9
  4088e4:	24060002 	li	a2,2
  4088e8:	8fbc0010 	lw	gp,16(sp)
  4088ec:	8e04000c 	lw	a0,12(s0)
  4088f0:	8f998190 	lw	t9,-32368(gp)
  4088f4:	2625d27c 	addiu	a1,s1,-11652
  4088f8:	0320f809 	jalr	t9
  4088fc:	24060002 	li	a2,2
  408900:	8fbc0010 	lw	gp,16(sp)
  408904:	8e040010 	lw	a0,16(s0)
  408908:	8f998190 	lw	t9,-32368(gp)
  40890c:	2645d280 	addiu	a1,s2,-11648
  408910:	0320f809 	jalr	t9
  408914:	24060002 	li	a2,2
  408918:	8fbc0010 	lw	gp,16(sp)
  40891c:	8e040014 	lw	a0,20(s0)
  408920:	8f998190 	lw	t9,-32368(gp)
  408924:	2625d27c 	addiu	a1,s1,-11652
  408928:	0320f809 	jalr	t9
  40892c:	24060002 	li	a2,2
  408930:	8fbf0024 	lw	ra,36(sp)
  408934:	8fb20020 	lw	s2,32(sp)
  408938:	8fb1001c 	lw	s1,28(sp)
  40893c:	8fb00018 	lw	s0,24(sp)
  408940:	24020001 	li	v0,1
  408944:	03e00008 	jr	ra
  408948:	27bd0028 	addiu	sp,sp,40

0040894c <slow_lane_reverse>:
  40894c:	3c1c0042 	lui	gp,0x42
  408950:	27bdffd8 	addiu	sp,sp,-40
  408954:	279c5520 	addiu	gp,gp,21792
  408958:	afb00018 	sw	s0,24(sp)
  40895c:	8f9080b4 	lw	s0,-32588(gp)
  408960:	afb1001c 	sw	s1,28(sp)
  408964:	8f998190 	lw	t9,-32368(gp)
  408968:	3c110041 	lui	s1,0x41
  40896c:	8e040000 	lw	a0,0(s0)
  408970:	afbf0024 	sw	ra,36(sp)
  408974:	afb20020 	sw	s2,32(sp)
  408978:	afbc0010 	sw	gp,16(sp)
  40897c:	2625d27c 	addiu	a1,s1,-11652
  408980:	0320f809 	jalr	t9
  408984:	24060002 	li	a2,2
  408988:	8fbc0010 	lw	gp,16(sp)
  40898c:	3c120041 	lui	s2,0x41
  408990:	8e040004 	lw	a0,4(s0)
  408994:	8f998190 	lw	t9,-32368(gp)
  408998:	2645d280 	addiu	a1,s2,-11648
  40899c:	0320f809 	jalr	t9
  4089a0:	24060002 	li	a2,2
  4089a4:	8fbc0010 	lw	gp,16(sp)
  4089a8:	8e040008 	lw	a0,8(s0)
  4089ac:	8f998190 	lw	t9,-32368(gp)
  4089b0:	2625d27c 	addiu	a1,s1,-11652
  4089b4:	0320f809 	jalr	t9
  4089b8:	24060002 	li	a2,2
  4089bc:	8fbc0010 	lw	gp,16(sp)
  4089c0:	8e04000c 	lw	a0,12(s0)
  4089c4:	8f998190 	lw	t9,-32368(gp)
  4089c8:	2645d280 	addiu	a1,s2,-11648
  4089cc:	0320f809 	jalr	t9
  4089d0:	24060002 	li	a2,2
  4089d4:	8fbc0010 	lw	gp,16(sp)
  4089d8:	8e040010 	lw	a0,16(s0)
  4089dc:	8f998190 	lw	t9,-32368(gp)
  4089e0:	2625d27c 	addiu	a1,s1,-11652
  4089e4:	0320f809 	jalr	t9
  4089e8:	24060002 	li	a2,2
  4089ec:	8fbc0010 	lw	gp,16(sp)
  4089f0:	8e040014 	lw	a0,20(s0)
  4089f4:	8f998190 	lw	t9,-32368(gp)
  4089f8:	2625d27c 	addiu	a1,s1,-11652
  4089fc:	0320f809 	jalr	t9
  408a00:	24060002 	li	a2,2
  408a04:	8fbf0024 	lw	ra,36(sp)
  408a08:	8fb20020 	lw	s2,32(sp)
  408a0c:	8fb1001c 	lw	s1,28(sp)
  408a10:	8fb00018 	lw	s0,24(sp)
  408a14:	24020001 	li	v0,1
  408a18:	03e00008 	jr	ra
  408a1c:	27bd0028 	addiu	sp,sp,40

00408a20 <slow_lane_turn_front>:
  408a20:	3c1c0042 	lui	gp,0x42
  408a24:	27bdffd8 	addiu	sp,sp,-40
  408a28:	279c5520 	addiu	gp,gp,21792
  408a2c:	afb00018 	sw	s0,24(sp)
  408a30:	8f9080b4 	lw	s0,-32588(gp)
  408a34:	afb1001c 	sw	s1,28(sp)
  408a38:	8f998190 	lw	t9,-32368(gp)
  408a3c:	3c110041 	lui	s1,0x41
  408a40:	8e040000 	lw	a0,0(s0)
  408a44:	afbf0024 	sw	ra,36(sp)
  408a48:	afb20020 	sw	s2,32(sp)
  408a4c:	afbc0010 	sw	gp,16(sp)
  408a50:	2625d27c 	addiu	a1,s1,-11652
  408a54:	0320f809 	jalr	t9
  408a58:	24060002 	li	a2,2
  408a5c:	8fbc0010 	lw	gp,16(sp)
  408a60:	8e040004 	lw	a0,4(s0)
  408a64:	8f998190 	lw	t9,-32368(gp)
  408a68:	2625d27c 	addiu	a1,s1,-11652
  408a6c:	0320f809 	jalr	t9
  408a70:	24060002 	li	a2,2
  408a74:	8fbc0010 	lw	gp,16(sp)
  408a78:	3c120041 	lui	s2,0x41
  408a7c:	8e040008 	lw	a0,8(s0)
  408a80:	8f998190 	lw	t9,-32368(gp)
  408a84:	2645d280 	addiu	a1,s2,-11648
  408a88:	0320f809 	jalr	t9
  408a8c:	24060002 	li	a2,2
  408a90:	8fbc0010 	lw	gp,16(sp)
  408a94:	8e04000c 	lw	a0,12(s0)
  408a98:	8f998190 	lw	t9,-32368(gp)
  408a9c:	2625d27c 	addiu	a1,s1,-11652
  408aa0:	0320f809 	jalr	t9
  408aa4:	24060002 	li	a2,2
  408aa8:	8fbc0010 	lw	gp,16(sp)
  408aac:	8e040010 	lw	a0,16(s0)
  408ab0:	8f998190 	lw	t9,-32368(gp)
  408ab4:	2645d280 	addiu	a1,s2,-11648
  408ab8:	0320f809 	jalr	t9
  408abc:	24060002 	li	a2,2
  408ac0:	8fbc0010 	lw	gp,16(sp)
  408ac4:	8e040014 	lw	a0,20(s0)
  408ac8:	8f998190 	lw	t9,-32368(gp)
  408acc:	2625d27c 	addiu	a1,s1,-11652
  408ad0:	0320f809 	jalr	t9
  408ad4:	24060002 	li	a2,2
  408ad8:	8fbf0024 	lw	ra,36(sp)
  408adc:	8fb20020 	lw	s2,32(sp)
  408ae0:	8fb1001c 	lw	s1,28(sp)
  408ae4:	8fb00018 	lw	s0,24(sp)
  408ae8:	24020001 	li	v0,1
  408aec:	03e00008 	jr	ra
  408af0:	27bd0028 	addiu	sp,sp,40

00408af4 <slow_lane_turn_back>:
  408af4:	3c1c0042 	lui	gp,0x42
  408af8:	27bdffd8 	addiu	sp,sp,-40
  408afc:	279c5520 	addiu	gp,gp,21792
  408b00:	afb00018 	sw	s0,24(sp)
  408b04:	8f9080b4 	lw	s0,-32588(gp)
  408b08:	afb1001c 	sw	s1,28(sp)
  408b0c:	8f998190 	lw	t9,-32368(gp)
  408b10:	3c110041 	lui	s1,0x41
  408b14:	8e040000 	lw	a0,0(s0)
  408b18:	afbf0024 	sw	ra,36(sp)
  408b1c:	afb20020 	sw	s2,32(sp)
  408b20:	afbc0010 	sw	gp,16(sp)
  408b24:	2625d27c 	addiu	a1,s1,-11652
  408b28:	0320f809 	jalr	t9
  408b2c:	24060002 	li	a2,2
  408b30:	8fbc0010 	lw	gp,16(sp)
  408b34:	3c120041 	lui	s2,0x41
  408b38:	8e040004 	lw	a0,4(s0)
  408b3c:	8f998190 	lw	t9,-32368(gp)
  408b40:	2645d280 	addiu	a1,s2,-11648
  408b44:	0320f809 	jalr	t9
  408b48:	24060002 	li	a2,2
  408b4c:	8fbc0010 	lw	gp,16(sp)
  408b50:	8e040008 	lw	a0,8(s0)
  408b54:	8f998190 	lw	t9,-32368(gp)
  408b58:	2625d27c 	addiu	a1,s1,-11652
  408b5c:	0320f809 	jalr	t9
  408b60:	24060002 	li	a2,2
  408b64:	8fbc0010 	lw	gp,16(sp)
  408b68:	8e04000c 	lw	a0,12(s0)
  408b6c:	8f998190 	lw	t9,-32368(gp)
  408b70:	2625d27c 	addiu	a1,s1,-11652
  408b74:	0320f809 	jalr	t9
  408b78:	24060002 	li	a2,2
  408b7c:	8fbc0010 	lw	gp,16(sp)
  408b80:	8e040010 	lw	a0,16(s0)
  408b84:	8f998190 	lw	t9,-32368(gp)
  408b88:	2625d27c 	addiu	a1,s1,-11652
  408b8c:	0320f809 	jalr	t9
  408b90:	24060002 	li	a2,2
  408b94:	8fbc0010 	lw	gp,16(sp)
  408b98:	8e040014 	lw	a0,20(s0)
  408b9c:	8f998190 	lw	t9,-32368(gp)
  408ba0:	2645d280 	addiu	a1,s2,-11648
  408ba4:	0320f809 	jalr	t9
  408ba8:	24060002 	li	a2,2
  408bac:	8fbf0024 	lw	ra,36(sp)
  408bb0:	8fb20020 	lw	s2,32(sp)
  408bb4:	8fb1001c 	lw	s1,28(sp)
  408bb8:	8fb00018 	lw	s0,24(sp)
  408bbc:	24020001 	li	v0,1
  408bc0:	03e00008 	jr	ra
  408bc4:	27bd0028 	addiu	sp,sp,40

00408bc8 <main_lane_pass>:
  408bc8:	3c1c0042 	lui	gp,0x42
  408bcc:	27bdffd8 	addiu	sp,sp,-40
  408bd0:	279c5520 	addiu	gp,gp,21792
  408bd4:	afb00018 	sw	s0,24(sp)
  408bd8:	8f9080b4 	lw	s0,-32588(gp)
  408bdc:	afb20020 	sw	s2,32(sp)
  408be0:	8f998190 	lw	t9,-32368(gp)
  408be4:	3c120041 	lui	s2,0x41
  408be8:	8e04001c 	lw	a0,28(s0)
  408bec:	afbf0024 	sw	ra,36(sp)
  408bf0:	afb1001c 	sw	s1,28(sp)
  408bf4:	afbc0010 	sw	gp,16(sp)
  408bf8:	2645d280 	addiu	a1,s2,-11648
  408bfc:	0320f809 	jalr	t9
  408c00:	24060002 	li	a2,2
  408c04:	8fbc0010 	lw	gp,16(sp)
  408c08:	3c110041 	lui	s1,0x41
  408c0c:	8e040020 	lw	a0,32(s0)
  408c10:	8f998190 	lw	t9,-32368(gp)
  408c14:	2625d27c 	addiu	a1,s1,-11652
  408c18:	0320f809 	jalr	t9
  408c1c:	24060002 	li	a2,2
  408c20:	8fbc0010 	lw	gp,16(sp)
  408c24:	8e040024 	lw	a0,36(s0)
  408c28:	8f998190 	lw	t9,-32368(gp)
  408c2c:	2625d27c 	addiu	a1,s1,-11652
  408c30:	0320f809 	jalr	t9
  408c34:	24060002 	li	a2,2
  408c38:	8fbc0010 	lw	gp,16(sp)
  408c3c:	8e040028 	lw	a0,40(s0)
  408c40:	8f998190 	lw	t9,-32368(gp)
  408c44:	2625d27c 	addiu	a1,s1,-11652
  408c48:	0320f809 	jalr	t9
  408c4c:	24060002 	li	a2,2
  408c50:	8fbc0010 	lw	gp,16(sp)
  408c54:	8e04002c 	lw	a0,44(s0)
  408c58:	8f998190 	lw	t9,-32368(gp)
  408c5c:	2645d280 	addiu	a1,s2,-11648
  408c60:	0320f809 	jalr	t9
  408c64:	24060002 	li	a2,2
  408c68:	8fbc0010 	lw	gp,16(sp)
  408c6c:	8e040030 	lw	a0,48(s0)
  408c70:	8f998190 	lw	t9,-32368(gp)
  408c74:	2625d27c 	addiu	a1,s1,-11652
  408c78:	0320f809 	jalr	t9
  408c7c:	24060002 	li	a2,2
  408c80:	8fbf0024 	lw	ra,36(sp)
  408c84:	8fb20020 	lw	s2,32(sp)
  408c88:	8fb1001c 	lw	s1,28(sp)
  408c8c:	8fb00018 	lw	s0,24(sp)
  408c90:	24020001 	li	v0,1
  408c94:	03e00008 	jr	ra
  408c98:	27bd0028 	addiu	sp,sp,40

00408c9c <main_lane_forbid>:
  408c9c:	3c1c0042 	lui	gp,0x42
  408ca0:	27bdffd8 	addiu	sp,sp,-40
  408ca4:	279c5520 	addiu	gp,gp,21792
  408ca8:	afb00018 	sw	s0,24(sp)
  408cac:	8f9080b4 	lw	s0,-32588(gp)
  408cb0:	afb1001c 	sw	s1,28(sp)
  408cb4:	8f998190 	lw	t9,-32368(gp)
  408cb8:	3c110041 	lui	s1,0x41
  408cbc:	8e04001c 	lw	a0,28(s0)
  408cc0:	afbf0024 	sw	ra,36(sp)
  408cc4:	afb20020 	sw	s2,32(sp)
  408cc8:	afbc0010 	sw	gp,16(sp)
  408ccc:	2625d27c 	addiu	a1,s1,-11652
  408cd0:	0320f809 	jalr	t9
  408cd4:	24060002 	li	a2,2
  408cd8:	8fbc0010 	lw	gp,16(sp)
  408cdc:	3c120041 	lui	s2,0x41
  408ce0:	8e040020 	lw	a0,32(s0)
  408ce4:	8f998190 	lw	t9,-32368(gp)
  408ce8:	2645d280 	addiu	a1,s2,-11648
  408cec:	0320f809 	jalr	t9
  408cf0:	24060002 	li	a2,2
  408cf4:	8fbc0010 	lw	gp,16(sp)
  408cf8:	8e040024 	lw	a0,36(s0)
  408cfc:	8f998190 	lw	t9,-32368(gp)
  408d00:	2625d27c 	addiu	a1,s1,-11652
  408d04:	0320f809 	jalr	t9
  408d08:	24060002 	li	a2,2
  408d0c:	8fbc0010 	lw	gp,16(sp)
  408d10:	8e040028 	lw	a0,40(s0)
  408d14:	8f998190 	lw	t9,-32368(gp)
  408d18:	2625d27c 	addiu	a1,s1,-11652
  408d1c:	0320f809 	jalr	t9
  408d20:	24060002 	li	a2,2
  408d24:	8fbc0010 	lw	gp,16(sp)
  408d28:	8e04002c 	lw	a0,44(s0)
  408d2c:	8f998190 	lw	t9,-32368(gp)
  408d30:	2645d280 	addiu	a1,s2,-11648
  408d34:	0320f809 	jalr	t9
  408d38:	24060002 	li	a2,2
  408d3c:	8fbc0010 	lw	gp,16(sp)
  408d40:	8e040030 	lw	a0,48(s0)
  408d44:	8f998190 	lw	t9,-32368(gp)
  408d48:	2625d27c 	addiu	a1,s1,-11652
  408d4c:	0320f809 	jalr	t9
  408d50:	24060002 	li	a2,2
  408d54:	8fbf0024 	lw	ra,36(sp)
  408d58:	8fb20020 	lw	s2,32(sp)
  408d5c:	8fb1001c 	lw	s1,28(sp)
  408d60:	8fb00018 	lw	s0,24(sp)
  408d64:	24020001 	li	v0,1
  408d68:	03e00008 	jr	ra
  408d6c:	27bd0028 	addiu	sp,sp,40

00408d70 <main_lane_reverse>:
  408d70:	3c1c0042 	lui	gp,0x42
  408d74:	27bdffd8 	addiu	sp,sp,-40
  408d78:	279c5520 	addiu	gp,gp,21792
  408d7c:	afb00018 	sw	s0,24(sp)
  408d80:	8f9080b4 	lw	s0,-32588(gp)
  408d84:	afb1001c 	sw	s1,28(sp)
  408d88:	8f998190 	lw	t9,-32368(gp)
  408d8c:	3c110041 	lui	s1,0x41
  408d90:	8e04001c 	lw	a0,28(s0)
  408d94:	afbf0024 	sw	ra,36(sp)
  408d98:	afb20020 	sw	s2,32(sp)
  408d9c:	afbc0010 	sw	gp,16(sp)
  408da0:	2625d27c 	addiu	a1,s1,-11652
  408da4:	0320f809 	jalr	t9
  408da8:	24060002 	li	a2,2
  408dac:	8fbc0010 	lw	gp,16(sp)
  408db0:	3c120041 	lui	s2,0x41
  408db4:	8e040020 	lw	a0,32(s0)
  408db8:	8f998190 	lw	t9,-32368(gp)
  408dbc:	2645d280 	addiu	a1,s2,-11648
  408dc0:	0320f809 	jalr	t9
  408dc4:	24060002 	li	a2,2
  408dc8:	8fbc0010 	lw	gp,16(sp)
  408dcc:	8e040024 	lw	a0,36(s0)
  408dd0:	8f998190 	lw	t9,-32368(gp)
  408dd4:	2625d27c 	addiu	a1,s1,-11652
  408dd8:	0320f809 	jalr	t9
  408ddc:	24060002 	li	a2,2
  408de0:	8fbc0010 	lw	gp,16(sp)
  408de4:	8e040028 	lw	a0,40(s0)
  408de8:	8f998190 	lw	t9,-32368(gp)
  408dec:	2645d280 	addiu	a1,s2,-11648
  408df0:	0320f809 	jalr	t9
  408df4:	24060002 	li	a2,2
  408df8:	8fbc0010 	lw	gp,16(sp)
  408dfc:	8e04002c 	lw	a0,44(s0)
  408e00:	8f998190 	lw	t9,-32368(gp)
  408e04:	2625d27c 	addiu	a1,s1,-11652
  408e08:	0320f809 	jalr	t9
  408e0c:	24060002 	li	a2,2
  408e10:	8fbc0010 	lw	gp,16(sp)
  408e14:	8e040030 	lw	a0,48(s0)
  408e18:	8f998190 	lw	t9,-32368(gp)
  408e1c:	2625d27c 	addiu	a1,s1,-11652
  408e20:	0320f809 	jalr	t9
  408e24:	24060002 	li	a2,2
  408e28:	8fbf0024 	lw	ra,36(sp)
  408e2c:	8fb20020 	lw	s2,32(sp)
  408e30:	8fb1001c 	lw	s1,28(sp)
  408e34:	8fb00018 	lw	s0,24(sp)
  408e38:	24020001 	li	v0,1
  408e3c:	03e00008 	jr	ra
  408e40:	27bd0028 	addiu	sp,sp,40

00408e44 <main_lane_turn_front>:
  408e44:	3c1c0042 	lui	gp,0x42
  408e48:	27bdffd8 	addiu	sp,sp,-40
  408e4c:	279c5520 	addiu	gp,gp,21792
  408e50:	afb00018 	sw	s0,24(sp)
  408e54:	8f9080b4 	lw	s0,-32588(gp)
  408e58:	afb1001c 	sw	s1,28(sp)
  408e5c:	8f998190 	lw	t9,-32368(gp)
  408e60:	3c110041 	lui	s1,0x41
  408e64:	8e04001c 	lw	a0,28(s0)
  408e68:	afbf0024 	sw	ra,36(sp)
  408e6c:	afb20020 	sw	s2,32(sp)
  408e70:	afbc0010 	sw	gp,16(sp)
  408e74:	2625d27c 	addiu	a1,s1,-11652
  408e78:	0320f809 	jalr	t9
  408e7c:	24060002 	li	a2,2
  408e80:	8fbc0010 	lw	gp,16(sp)
  408e84:	8e040020 	lw	a0,32(s0)
  408e88:	8f998190 	lw	t9,-32368(gp)
  408e8c:	2625d27c 	addiu	a1,s1,-11652
  408e90:	0320f809 	jalr	t9
  408e94:	24060002 	li	a2,2
  408e98:	8fbc0010 	lw	gp,16(sp)
  408e9c:	3c120041 	lui	s2,0x41
  408ea0:	8e040024 	lw	a0,36(s0)
  408ea4:	8f998190 	lw	t9,-32368(gp)
  408ea8:	2645d280 	addiu	a1,s2,-11648
  408eac:	0320f809 	jalr	t9
  408eb0:	24060002 	li	a2,2
  408eb4:	8fbc0010 	lw	gp,16(sp)
  408eb8:	8e040028 	lw	a0,40(s0)
  408ebc:	8f998190 	lw	t9,-32368(gp)
  408ec0:	2625d27c 	addiu	a1,s1,-11652
  408ec4:	0320f809 	jalr	t9
  408ec8:	24060002 	li	a2,2
  408ecc:	8fbc0010 	lw	gp,16(sp)
  408ed0:	8e04002c 	lw	a0,44(s0)
  408ed4:	8f998190 	lw	t9,-32368(gp)
  408ed8:	2645d280 	addiu	a1,s2,-11648
  408edc:	0320f809 	jalr	t9
  408ee0:	24060002 	li	a2,2
  408ee4:	8fbc0010 	lw	gp,16(sp)
  408ee8:	8e040030 	lw	a0,48(s0)
  408eec:	8f998190 	lw	t9,-32368(gp)
  408ef0:	2625d27c 	addiu	a1,s1,-11652
  408ef4:	0320f809 	jalr	t9
  408ef8:	24060002 	li	a2,2
  408efc:	8fbf0024 	lw	ra,36(sp)
  408f00:	8fb20020 	lw	s2,32(sp)
  408f04:	8fb1001c 	lw	s1,28(sp)
  408f08:	8fb00018 	lw	s0,24(sp)
  408f0c:	24020001 	li	v0,1
  408f10:	03e00008 	jr	ra
  408f14:	27bd0028 	addiu	sp,sp,40

00408f18 <main_lane_turn_back>:
  408f18:	3c1c0042 	lui	gp,0x42
  408f1c:	27bdffd8 	addiu	sp,sp,-40
  408f20:	279c5520 	addiu	gp,gp,21792
  408f24:	afb00018 	sw	s0,24(sp)
  408f28:	8f9080b4 	lw	s0,-32588(gp)
  408f2c:	afb1001c 	sw	s1,28(sp)
  408f30:	8f998190 	lw	t9,-32368(gp)
  408f34:	3c110041 	lui	s1,0x41
  408f38:	8e04001c 	lw	a0,28(s0)
  408f3c:	afbf0024 	sw	ra,36(sp)
  408f40:	afb20020 	sw	s2,32(sp)
  408f44:	afbc0010 	sw	gp,16(sp)
  408f48:	2625d27c 	addiu	a1,s1,-11652
  408f4c:	0320f809 	jalr	t9
  408f50:	24060002 	li	a2,2
  408f54:	8fbc0010 	lw	gp,16(sp)
  408f58:	3c120041 	lui	s2,0x41
  408f5c:	8e040020 	lw	a0,32(s0)
  408f60:	8f998190 	lw	t9,-32368(gp)
  408f64:	2645d280 	addiu	a1,s2,-11648
  408f68:	0320f809 	jalr	t9
  408f6c:	24060002 	li	a2,2
  408f70:	8fbc0010 	lw	gp,16(sp)
  408f74:	8e040024 	lw	a0,36(s0)
  408f78:	8f998190 	lw	t9,-32368(gp)
  408f7c:	2625d27c 	addiu	a1,s1,-11652
  408f80:	0320f809 	jalr	t9
  408f84:	24060002 	li	a2,2
  408f88:	8fbc0010 	lw	gp,16(sp)
  408f8c:	8e040028 	lw	a0,40(s0)
  408f90:	8f998190 	lw	t9,-32368(gp)
  408f94:	2625d27c 	addiu	a1,s1,-11652
  408f98:	0320f809 	jalr	t9
  408f9c:	24060002 	li	a2,2
  408fa0:	8fbc0010 	lw	gp,16(sp)
  408fa4:	8e04002c 	lw	a0,44(s0)
  408fa8:	8f998190 	lw	t9,-32368(gp)
  408fac:	2625d27c 	addiu	a1,s1,-11652
  408fb0:	0320f809 	jalr	t9
  408fb4:	24060002 	li	a2,2
  408fb8:	8fbc0010 	lw	gp,16(sp)
  408fbc:	8e040030 	lw	a0,48(s0)
  408fc0:	8f998190 	lw	t9,-32368(gp)
  408fc4:	2645d280 	addiu	a1,s2,-11648
  408fc8:	0320f809 	jalr	t9
  408fcc:	24060002 	li	a2,2
  408fd0:	8fbf0024 	lw	ra,36(sp)
  408fd4:	8fb20020 	lw	s2,32(sp)
  408fd8:	8fb1001c 	lw	s1,28(sp)
  408fdc:	8fb00018 	lw	s0,24(sp)
  408fe0:	24020001 	li	v0,1
  408fe4:	03e00008 	jr	ra
  408fe8:	27bd0028 	addiu	sp,sp,40

00408fec <over_lane_pass>:
  408fec:	3c1c0042 	lui	gp,0x42
  408ff0:	27bdffd8 	addiu	sp,sp,-40
  408ff4:	279c5520 	addiu	gp,gp,21792
  408ff8:	afb00018 	sw	s0,24(sp)
  408ffc:	8f9080b4 	lw	s0,-32588(gp)
  409000:	afb20020 	sw	s2,32(sp)
  409004:	8f998190 	lw	t9,-32368(gp)
  409008:	3c120041 	lui	s2,0x41
  40900c:	8e040038 	lw	a0,56(s0)
  409010:	afbf0024 	sw	ra,36(sp)
  409014:	afb1001c 	sw	s1,28(sp)
  409018:	afbc0010 	sw	gp,16(sp)
  40901c:	2645d280 	addiu	a1,s2,-11648
  409020:	0320f809 	jalr	t9
  409024:	24060002 	li	a2,2
  409028:	8fbc0010 	lw	gp,16(sp)
  40902c:	3c110041 	lui	s1,0x41
  409030:	8e04003c 	lw	a0,60(s0)
  409034:	8f998190 	lw	t9,-32368(gp)
  409038:	2625d27c 	addiu	a1,s1,-11652
  40903c:	0320f809 	jalr	t9
  409040:	24060002 	li	a2,2
  409044:	8fbc0010 	lw	gp,16(sp)
  409048:	8e040040 	lw	a0,64(s0)
  40904c:	8f998190 	lw	t9,-32368(gp)
  409050:	2625d27c 	addiu	a1,s1,-11652
  409054:	0320f809 	jalr	t9
  409058:	24060002 	li	a2,2
  40905c:	8fbc0010 	lw	gp,16(sp)
  409060:	8e040044 	lw	a0,68(s0)
  409064:	8f998190 	lw	t9,-32368(gp)
  409068:	2625d27c 	addiu	a1,s1,-11652
  40906c:	0320f809 	jalr	t9
  409070:	24060002 	li	a2,2
  409074:	8fbc0010 	lw	gp,16(sp)
  409078:	8e040048 	lw	a0,72(s0)
  40907c:	8f998190 	lw	t9,-32368(gp)
  409080:	2645d280 	addiu	a1,s2,-11648
  409084:	0320f809 	jalr	t9
  409088:	24060002 	li	a2,2
  40908c:	8fbc0010 	lw	gp,16(sp)
  409090:	8e04004c 	lw	a0,76(s0)
  409094:	8f998190 	lw	t9,-32368(gp)
  409098:	2625d27c 	addiu	a1,s1,-11652
  40909c:	0320f809 	jalr	t9
  4090a0:	24060002 	li	a2,2
  4090a4:	8fbf0024 	lw	ra,36(sp)
  4090a8:	8fb20020 	lw	s2,32(sp)
  4090ac:	8fb1001c 	lw	s1,28(sp)
  4090b0:	8fb00018 	lw	s0,24(sp)
  4090b4:	24020001 	li	v0,1
  4090b8:	03e00008 	jr	ra
  4090bc:	27bd0028 	addiu	sp,sp,40

004090c0 <over_lane_forbid>:
  4090c0:	3c1c0042 	lui	gp,0x42
  4090c4:	27bdffd8 	addiu	sp,sp,-40
  4090c8:	279c5520 	addiu	gp,gp,21792
  4090cc:	afb00018 	sw	s0,24(sp)
  4090d0:	8f9080b4 	lw	s0,-32588(gp)
  4090d4:	afb1001c 	sw	s1,28(sp)
  4090d8:	8f998190 	lw	t9,-32368(gp)
  4090dc:	3c110041 	lui	s1,0x41
  4090e0:	8e040038 	lw	a0,56(s0)
  4090e4:	afbf0024 	sw	ra,36(sp)
  4090e8:	afb20020 	sw	s2,32(sp)
  4090ec:	afbc0010 	sw	gp,16(sp)
  4090f0:	2625d27c 	addiu	a1,s1,-11652
  4090f4:	0320f809 	jalr	t9
  4090f8:	24060002 	li	a2,2
  4090fc:	8fbc0010 	lw	gp,16(sp)
  409100:	3c120041 	lui	s2,0x41
  409104:	8e04003c 	lw	a0,60(s0)
  409108:	8f998190 	lw	t9,-32368(gp)
  40910c:	2645d280 	addiu	a1,s2,-11648
  409110:	0320f809 	jalr	t9
  409114:	24060002 	li	a2,2
  409118:	8fbc0010 	lw	gp,16(sp)
  40911c:	8e040040 	lw	a0,64(s0)
  409120:	8f998190 	lw	t9,-32368(gp)
  409124:	2625d27c 	addiu	a1,s1,-11652
  409128:	0320f809 	jalr	t9
  40912c:	24060002 	li	a2,2
  409130:	8fbc0010 	lw	gp,16(sp)
  409134:	8e040044 	lw	a0,68(s0)
  409138:	8f998190 	lw	t9,-32368(gp)
  40913c:	2625d27c 	addiu	a1,s1,-11652
  409140:	0320f809 	jalr	t9
  409144:	24060002 	li	a2,2
  409148:	8fbc0010 	lw	gp,16(sp)
  40914c:	8e040048 	lw	a0,72(s0)
  409150:	8f998190 	lw	t9,-32368(gp)
  409154:	2645d280 	addiu	a1,s2,-11648
  409158:	0320f809 	jalr	t9
  40915c:	24060002 	li	a2,2
  409160:	8fbc0010 	lw	gp,16(sp)
  409164:	8e04004c 	lw	a0,76(s0)
  409168:	8f998190 	lw	t9,-32368(gp)
  40916c:	2625d27c 	addiu	a1,s1,-11652
  409170:	0320f809 	jalr	t9
  409174:	24060002 	li	a2,2
  409178:	8fbf0024 	lw	ra,36(sp)
  40917c:	8fb20020 	lw	s2,32(sp)
  409180:	8fb1001c 	lw	s1,28(sp)
  409184:	8fb00018 	lw	s0,24(sp)
  409188:	24020001 	li	v0,1
  40918c:	03e00008 	jr	ra
  409190:	27bd0028 	addiu	sp,sp,40

00409194 <over_lane_reverse>:
  409194:	3c1c0042 	lui	gp,0x42
  409198:	27bdffd8 	addiu	sp,sp,-40
  40919c:	279c5520 	addiu	gp,gp,21792
  4091a0:	afb00018 	sw	s0,24(sp)
  4091a4:	8f9080b4 	lw	s0,-32588(gp)
  4091a8:	afb1001c 	sw	s1,28(sp)
  4091ac:	8f998190 	lw	t9,-32368(gp)
  4091b0:	3c110041 	lui	s1,0x41
  4091b4:	8e040038 	lw	a0,56(s0)
  4091b8:	afbf0024 	sw	ra,36(sp)
  4091bc:	afb20020 	sw	s2,32(sp)
  4091c0:	afbc0010 	sw	gp,16(sp)
  4091c4:	2625d27c 	addiu	a1,s1,-11652
  4091c8:	0320f809 	jalr	t9
  4091cc:	24060002 	li	a2,2
  4091d0:	8fbc0010 	lw	gp,16(sp)
  4091d4:	3c120041 	lui	s2,0x41
  4091d8:	8e04003c 	lw	a0,60(s0)
  4091dc:	8f998190 	lw	t9,-32368(gp)
  4091e0:	2645d280 	addiu	a1,s2,-11648
  4091e4:	0320f809 	jalr	t9
  4091e8:	24060002 	li	a2,2
  4091ec:	8fbc0010 	lw	gp,16(sp)
  4091f0:	8e040040 	lw	a0,64(s0)
  4091f4:	8f998190 	lw	t9,-32368(gp)
  4091f8:	2625d27c 	addiu	a1,s1,-11652
  4091fc:	0320f809 	jalr	t9
  409200:	24060002 	li	a2,2
  409204:	8fbc0010 	lw	gp,16(sp)
  409208:	8e040044 	lw	a0,68(s0)
  40920c:	8f998190 	lw	t9,-32368(gp)
  409210:	2645d280 	addiu	a1,s2,-11648
  409214:	0320f809 	jalr	t9
  409218:	24060002 	li	a2,2
  40921c:	8fbc0010 	lw	gp,16(sp)
  409220:	8e040048 	lw	a0,72(s0)
  409224:	8f998190 	lw	t9,-32368(gp)
  409228:	2625d27c 	addiu	a1,s1,-11652
  40922c:	0320f809 	jalr	t9
  409230:	24060002 	li	a2,2
  409234:	8fbc0010 	lw	gp,16(sp)
  409238:	8e04004c 	lw	a0,76(s0)
  40923c:	8f998190 	lw	t9,-32368(gp)
  409240:	2625d27c 	addiu	a1,s1,-11652
  409244:	0320f809 	jalr	t9
  409248:	24060002 	li	a2,2
  40924c:	8fbf0024 	lw	ra,36(sp)
  409250:	8fb20020 	lw	s2,32(sp)
  409254:	8fb1001c 	lw	s1,28(sp)
  409258:	8fb00018 	lw	s0,24(sp)
  40925c:	24020001 	li	v0,1
  409260:	03e00008 	jr	ra
  409264:	27bd0028 	addiu	sp,sp,40

00409268 <over_lane_turn_front>:
  409268:	3c1c0042 	lui	gp,0x42
  40926c:	27bdffd8 	addiu	sp,sp,-40
  409270:	279c5520 	addiu	gp,gp,21792
  409274:	afb00018 	sw	s0,24(sp)
  409278:	8f9080b4 	lw	s0,-32588(gp)
  40927c:	afb1001c 	sw	s1,28(sp)
  409280:	8f998190 	lw	t9,-32368(gp)
  409284:	3c110041 	lui	s1,0x41
  409288:	8e040038 	lw	a0,56(s0)
  40928c:	afbf0024 	sw	ra,36(sp)
  409290:	afb20020 	sw	s2,32(sp)
  409294:	afbc0010 	sw	gp,16(sp)
  409298:	2625d27c 	addiu	a1,s1,-11652
  40929c:	0320f809 	jalr	t9
  4092a0:	24060002 	li	a2,2
  4092a4:	8fbc0010 	lw	gp,16(sp)
  4092a8:	8e04003c 	lw	a0,60(s0)
  4092ac:	8f998190 	lw	t9,-32368(gp)
  4092b0:	2625d27c 	addiu	a1,s1,-11652
  4092b4:	0320f809 	jalr	t9
  4092b8:	24060002 	li	a2,2
  4092bc:	8fbc0010 	lw	gp,16(sp)
  4092c0:	3c120041 	lui	s2,0x41
  4092c4:	8e040040 	lw	a0,64(s0)
  4092c8:	8f998190 	lw	t9,-32368(gp)
  4092cc:	2645d280 	addiu	a1,s2,-11648
  4092d0:	0320f809 	jalr	t9
  4092d4:	24060002 	li	a2,2
  4092d8:	8fbc0010 	lw	gp,16(sp)
  4092dc:	8e040044 	lw	a0,68(s0)
  4092e0:	8f998190 	lw	t9,-32368(gp)
  4092e4:	2625d27c 	addiu	a1,s1,-11652
  4092e8:	0320f809 	jalr	t9
  4092ec:	24060002 	li	a2,2
  4092f0:	8fbc0010 	lw	gp,16(sp)
  4092f4:	8e040048 	lw	a0,72(s0)
  4092f8:	8f998190 	lw	t9,-32368(gp)
  4092fc:	2645d280 	addiu	a1,s2,-11648
  409300:	0320f809 	jalr	t9
  409304:	24060002 	li	a2,2
  409308:	8fbc0010 	lw	gp,16(sp)
  40930c:	8e04004c 	lw	a0,76(s0)
  409310:	8f998190 	lw	t9,-32368(gp)
  409314:	2625d27c 	addiu	a1,s1,-11652
  409318:	0320f809 	jalr	t9
  40931c:	24060002 	li	a2,2
  409320:	8fbf0024 	lw	ra,36(sp)
  409324:	8fb20020 	lw	s2,32(sp)
  409328:	8fb1001c 	lw	s1,28(sp)
  40932c:	8fb00018 	lw	s0,24(sp)
  409330:	24020001 	li	v0,1
  409334:	03e00008 	jr	ra
  409338:	27bd0028 	addiu	sp,sp,40

0040933c <over_lane_turn_back>:
  40933c:	3c1c0042 	lui	gp,0x42
  409340:	27bdffd8 	addiu	sp,sp,-40
  409344:	279c5520 	addiu	gp,gp,21792
  409348:	afb00018 	sw	s0,24(sp)
  40934c:	8f9080b4 	lw	s0,-32588(gp)
  409350:	afb1001c 	sw	s1,28(sp)
  409354:	8f998190 	lw	t9,-32368(gp)
  409358:	3c110041 	lui	s1,0x41
  40935c:	8e040038 	lw	a0,56(s0)
  409360:	afbf0024 	sw	ra,36(sp)
  409364:	afb20020 	sw	s2,32(sp)
  409368:	afbc0010 	sw	gp,16(sp)
  40936c:	2625d27c 	addiu	a1,s1,-11652
  409370:	0320f809 	jalr	t9
  409374:	24060002 	li	a2,2
  409378:	8fbc0010 	lw	gp,16(sp)
  40937c:	3c120041 	lui	s2,0x41
  409380:	8e04003c 	lw	a0,60(s0)
  409384:	8f998190 	lw	t9,-32368(gp)
  409388:	2645d280 	addiu	a1,s2,-11648
  40938c:	0320f809 	jalr	t9
  409390:	24060002 	li	a2,2
  409394:	8fbc0010 	lw	gp,16(sp)
  409398:	8e040040 	lw	a0,64(s0)
  40939c:	8f998190 	lw	t9,-32368(gp)
  4093a0:	2625d27c 	addiu	a1,s1,-11652
  4093a4:	0320f809 	jalr	t9
  4093a8:	24060002 	li	a2,2
  4093ac:	8fbc0010 	lw	gp,16(sp)
  4093b0:	8e040044 	lw	a0,68(s0)
  4093b4:	8f998190 	lw	t9,-32368(gp)
  4093b8:	2625d27c 	addiu	a1,s1,-11652
  4093bc:	0320f809 	jalr	t9
  4093c0:	24060002 	li	a2,2
  4093c4:	8fbc0010 	lw	gp,16(sp)
  4093c8:	8e040048 	lw	a0,72(s0)
  4093cc:	8f998190 	lw	t9,-32368(gp)
  4093d0:	2625d27c 	addiu	a1,s1,-11652
  4093d4:	0320f809 	jalr	t9
  4093d8:	24060002 	li	a2,2
  4093dc:	8fbc0010 	lw	gp,16(sp)
  4093e0:	8e04004c 	lw	a0,76(s0)
  4093e4:	8f998190 	lw	t9,-32368(gp)
  4093e8:	2645d280 	addiu	a1,s2,-11648
  4093ec:	0320f809 	jalr	t9
  4093f0:	24060002 	li	a2,2
  4093f4:	8fbf0024 	lw	ra,36(sp)
  4093f8:	8fb20020 	lw	s2,32(sp)
  4093fc:	8fb1001c 	lw	s1,28(sp)
  409400:	8fb00018 	lw	s0,24(sp)
  409404:	24020001 	li	v0,1
  409408:	03e00008 	jr	ra
  40940c:	27bd0028 	addiu	sp,sp,40

00409410 <relay_output_init>:
  409410:	27bdffe0 	addiu	sp,sp,-32
  409414:	afbf001c 	sw	ra,28(sp)
  409418:	0c101d74 	jal	4075d0 <relay_gpio_export_init>
  40941c:	00000000 	nop
  409420:	0440000a 	bltz	v0,40944c <relay_output_init+0x3c>
  409424:	2402ffff 	li	v0,-1
  409428:	0c101e55 	jal	407954 <relay_gpio_direction_set_init>
  40942c:	00000000 	nop
  409430:	04400006 	bltz	v0,40944c <relay_output_init+0x3c>
  409434:	2402ffff 	li	v0,-1
  409438:	0c1020a9 	jal	4082a4 <relay_gpio_value_set_init>
  40943c:	00000000 	nop
  409440:	04400002 	bltz	v0,40944c <relay_output_init+0x3c>
  409444:	2402ffff 	li	v0,-1
  409448:	24020001 	li	v0,1
  40944c:	8fbf001c 	lw	ra,28(sp)
  409450:	03e00008 	jr	ra
  409454:	27bd0020 	addiu	sp,sp,32
	...

00409460 <local_output_ctrl>:
  409460:	3c1c0042 	lui	gp,0x42
  409464:	27bdffb8 	addiu	sp,sp,-72
  409468:	279c5520 	addiu	gp,gp,21792
  40946c:	afbe0040 	sw	s8,64(sp)
  409470:	afb7003c 	sw	s7,60(sp)
  409474:	afb60038 	sw	s6,56(sp)
  409478:	afb50034 	sw	s5,52(sp)
  40947c:	afb40030 	sw	s4,48(sp)
  409480:	afb3002c 	sw	s3,44(sp)
  409484:	afb20028 	sw	s2,40(sp)
  409488:	afb10024 	sw	s1,36(sp)
  40948c:	afb00020 	sw	s0,32(sp)
  409490:	8f928084 	lw	s2,-32636(gp)
  409494:	8f90808c 	lw	s0,-32628(gp)
  409498:	8f958088 	lw	s5,-32632(gp)
  40949c:	8f9380ac 	lw	s3,-32596(gp)
  4094a0:	8f94807c 	lw	s4,-32644(gp)
  4094a4:	8f9e80b0 	lw	s8,-32592(gp)
  4094a8:	8f978080 	lw	s7,-32640(gp)
  4094ac:	8f968094 	lw	s6,-32620(gp)
  4094b0:	8f918090 	lw	s1,-32624(gp)
  4094b4:	afbf0044 	sw	ra,68(sp)
  4094b8:	afbc0010 	sw	gp,16(sp)
  4094bc:	8f99820c 	lw	t9,-32244(gp)
  4094c0:	8f848078 	lw	a0,-32648(gp)
  4094c4:	0320f809 	jalr	t9
  4094c8:	00000000 	nop
  4094cc:	8e030000 	lw	v1,0(s0)
  4094d0:	24020047 	li	v0,71
  4094d4:	14620006 	bne	v1,v0,4094f0 <local_output_ctrl+0x90>
  4094d8:	8fbc0010 	lw	gp,16(sp)
  4094dc:	8f82808c 	lw	v0,-32628(gp)
  4094e0:	90430008 	lbu	v1,8(v0)
  4094e4:	24020001 	li	v0,1
  4094e8:	1062010c 	beq	v1,v0,40991c <local_output_ctrl+0x4bc>
  4094ec:	8f9981b4 	lw	t9,-32332(gp)
  4094f0:	8f9980b8 	lw	t9,-32584(gp)
  4094f4:	0320f809 	jalr	t9
  4094f8:	00002021 	move	a0,zero
  4094fc:	8fbc0010 	lw	gp,16(sp)
  409500:	a7c00002 	sh	zero,2(s8)
  409504:	8e430000 	lw	v1,0(s2)
  409508:	2402004f 	li	v0,79
  40950c:	106200a0 	beq	v1,v0,409790 <local_output_ctrl+0x330>
  409510:	8f848084 	lw	a0,-32636(gp)
  409514:	8ea30000 	lw	v1,0(s5)
  409518:	24020057 	li	v0,87
  40951c:	14620006 	bne	v1,v0,409538 <local_output_ctrl+0xd8>
  409520:	8f9980bc 	lw	t9,-32580(gp)
  409524:	8f848088 	lw	a0,-32632(gp)
  409528:	24020001 	li	v0,1
  40952c:	9083000a 	lbu	v1,10(a0)
  409530:	10620106 	beq	v1,v0,40994c <local_output_ctrl+0x4ec>
  409534:	00000000 	nop
  409538:	0320f809 	jalr	t9
  40953c:	00002021 	move	a0,zero
  409540:	8fbc0010 	lw	gp,16(sp)
  409544:	a2600004 	sb	zero,4(s3)
  409548:	8e830000 	lw	v1,0(s4)
  40954c:	2402005f 	li	v0,95
  409550:	1062006c 	beq	v1,v0,409704 <local_output_ctrl+0x2a4>
  409554:	8f83807c 	lw	v1,-32644(gp)
  409558:	8ee30000 	lw	v1,0(s7)
  40955c:	24020067 	li	v0,103
  409560:	10620047 	beq	v1,v0,409680 <local_output_ctrl+0x220>
  409564:	8f848080 	lw	a0,-32640(gp)
  409568:	8ec30000 	lw	v1,0(s6)
  40956c:	2402006f 	li	v0,111
  409570:	10620028 	beq	v1,v0,409614 <local_output_ctrl+0x1b4>
  409574:	8f848094 	lw	a0,-32620(gp)
  409578:	8e230000 	lw	v1,0(s1)
  40957c:	24020077 	li	v0,119
  409580:	1462ffce 	bne	v1,v0,4094bc <local_output_ctrl+0x5c>
  409584:	8f848090 	lw	a0,-32624(gp)
  409588:	9082000e 	lbu	v0,14(a0)
  40958c:	24030001 	li	v1,1
  409590:	104300c4 	beq	v0,v1,4098a4 <local_output_ctrl+0x444>
  409594:	24030047 	li	v1,71
  409598:	9222000f 	lbu	v0,15(s1)
  40959c:	24030001 	li	v1,1
  4095a0:	1443ffc7 	bne	v0,v1,4094c0 <local_output_ctrl+0x60>
  4095a4:	8f99820c 	lw	t9,-32244(gp)
  4095a8:	8f838090 	lw	v1,-32624(gp)
  4095ac:	8e040000 	lw	a0,0(s0)
  4095b0:	a060000f 	sb	zero,15(v1)
  4095b4:	24030047 	li	v1,71
  4095b8:	1483ffc2 	bne	a0,v1,4094c4 <local_output_ctrl+0x64>
  4095bc:	8f848078 	lw	a0,-32648(gp)
  4095c0:	8f84808c 	lw	a0,-32628(gp)
  4095c4:	90830008 	lbu	v1,8(a0)
  4095c8:	1462ffbd 	bne	v1,v0,4094c0 <local_output_ctrl+0x60>
  4095cc:	00000000 	nop
  4095d0:	92420009 	lbu	v0,9(s2)
  4095d4:	10400186 	beqz	v0,409bf0 <local_output_ctrl+0x790>
  4095d8:	8f9980c0 	lw	t9,-32576(gp)
  4095dc:	24030001 	li	v1,1
  4095e0:	1043018f 	beq	v0,v1,409c20 <local_output_ctrl+0x7c0>
  4095e4:	8f9980c4 	lw	t9,-32572(gp)
  4095e8:	24030002 	li	v1,2
  4095ec:	1443ffb4 	bne	v0,v1,4094c0 <local_output_ctrl+0x60>
  4095f0:	8f99820c 	lw	t9,-32244(gp)
  4095f4:	8f9980c8 	lw	t9,-32568(gp)
  4095f8:	0320f809 	jalr	t9
  4095fc:	00000000 	nop
  409600:	1840ffae 	blez	v0,4094bc <local_output_ctrl+0x5c>
  409604:	8fbc0010 	lw	gp,16(sp)
  409608:	24020004 	li	v0,4
  40960c:	0810252f 	j	4094bc <local_output_ctrl+0x5c>
  409610:	a662000a 	sh	v0,10(s3)
  409614:	9082000d 	lbu	v0,13(a0)
  409618:	24030001 	li	v1,1
  40961c:	1443ffd6 	bne	v0,v1,409578 <local_output_ctrl+0x118>
  409620:	24030047 	li	v1,71
  409624:	8e050000 	lw	a1,0(s0)
  409628:	14a3ffd3 	bne	a1,v1,409578 <local_output_ctrl+0x118>
  40962c:	a080000d 	sb	zero,13(a0)
  409630:	8f84808c 	lw	a0,-32628(gp)
  409634:	90830008 	lbu	v1,8(a0)
  409638:	1462ffcf 	bne	v1,v0,409578 <local_output_ctrl+0x118>
  40963c:	00000000 	nop
  409640:	92430009 	lbu	v1,9(s2)
  409644:	10600193 	beqz	v1,409c94 <local_output_ctrl+0x834>
  409648:	8f9980cc 	lw	t9,-32564(gp)
  40964c:	24020001 	li	v0,1
  409650:	1062019c 	beq	v1,v0,409cc4 <local_output_ctrl+0x864>
  409654:	8f9980d0 	lw	t9,-32560(gp)
  409658:	24020002 	li	v0,2
  40965c:	1462ffc6 	bne	v1,v0,409578 <local_output_ctrl+0x118>
  409660:	8f9980d4 	lw	t9,-32556(gp)
  409664:	0320f809 	jalr	t9
  409668:	afa3001c 	sw	v1,28(sp)
  40966c:	8fbc0010 	lw	gp,16(sp)
  409670:	1840ffc1 	blez	v0,409578 <local_output_ctrl+0x118>
  409674:	8fa3001c 	lw	v1,28(sp)
  409678:	0810255e 	j	409578 <local_output_ctrl+0x118>
  40967c:	a663000a 	sh	v1,10(s3)
  409680:	9082000c 	lbu	v0,12(a0)
  409684:	24030001 	li	v1,1
  409688:	1443ffb7 	bne	v0,v1,409568 <local_output_ctrl+0x108>
  40968c:	24030047 	li	v1,71
  409690:	8e050000 	lw	a1,0(s0)
  409694:	14a3ffb4 	bne	a1,v1,409568 <local_output_ctrl+0x108>
  409698:	a080000c 	sb	zero,12(a0)
  40969c:	8f84808c 	lw	a0,-32628(gp)
  4096a0:	90830008 	lbu	v1,8(a0)
  4096a4:	1462ffb0 	bne	v1,v0,409568 <local_output_ctrl+0x108>
  4096a8:	00000000 	nop
  4096ac:	92440009 	lbu	a0,9(s2)
  4096b0:	1080018c 	beqz	a0,409ce4 <local_output_ctrl+0x884>
  4096b4:	8f9980d8 	lw	t9,-32552(gp)
  4096b8:	24020001 	li	v0,1
  4096bc:	10820195 	beq	a0,v0,409d14 <local_output_ctrl+0x8b4>
  4096c0:	8f9980dc 	lw	t9,-32548(gp)
  4096c4:	24020002 	li	v0,2
  4096c8:	1482ffa7 	bne	a0,v0,409568 <local_output_ctrl+0x108>
  4096cc:	8f9980e0 	lw	t9,-32544(gp)
  4096d0:	0320f809 	jalr	t9
  4096d4:	00000000 	nop
  4096d8:	1840ffa3 	blez	v0,409568 <local_output_ctrl+0x108>
  4096dc:	8fbc0010 	lw	gp,16(sp)
  4096e0:	8f9981f8 	lw	t9,-32264(gp)
  4096e4:	3c030041 	lui	v1,0x41
  4096e8:	24020001 	li	v0,1
  4096ec:	2464d34c 	addiu	a0,v1,-11444
  4096f0:	24050001 	li	a1,1
  4096f4:	0320f809 	jalr	t9
  4096f8:	a662000a 	sh	v0,10(s3)
  4096fc:	0810255a 	j	409568 <local_output_ctrl+0x108>
  409700:	8fbc0010 	lw	gp,16(sp)
  409704:	9062000b 	lbu	v0,11(v1)
  409708:	24030001 	li	v1,1
  40970c:	1443ff92 	bne	v0,v1,409558 <local_output_ctrl+0xf8>
  409710:	8f83807c 	lw	v1,-32644(gp)
  409714:	8e040000 	lw	a0,0(s0)
  409718:	a060000b 	sb	zero,11(v1)
  40971c:	24030047 	li	v1,71
  409720:	1483ff8d 	bne	a0,v1,409558 <local_output_ctrl+0xf8>
  409724:	00000000 	nop
  409728:	8f84808c 	lw	a0,-32628(gp)
  40972c:	90830008 	lbu	v1,8(a0)
  409730:	1462ff89 	bne	v1,v0,409558 <local_output_ctrl+0xf8>
  409734:	00000000 	nop
  409738:	92440009 	lbu	a0,9(s2)
  40973c:	10800140 	beqz	a0,409c40 <local_output_ctrl+0x7e0>
  409740:	8f9980e4 	lw	t9,-32540(gp)
  409744:	24020001 	li	v0,1
  409748:	10820149 	beq	a0,v0,409c70 <local_output_ctrl+0x810>
  40974c:	8f9980e8 	lw	t9,-32536(gp)
  409750:	24020002 	li	v0,2
  409754:	1482ff80 	bne	a0,v0,409558 <local_output_ctrl+0xf8>
  409758:	8f9980ec 	lw	t9,-32532(gp)
  40975c:	0320f809 	jalr	t9
  409760:	00000000 	nop
  409764:	1840ff7c 	blez	v0,409558 <local_output_ctrl+0xf8>
  409768:	8fbc0010 	lw	gp,16(sp)
  40976c:	8f9981b4 	lw	t9,-32332(gp)
  409770:	3c030041 	lui	v1,0x41
  409774:	24020001 	li	v0,1
  409778:	2464d328 	addiu	a0,v1,-11480
  40977c:	a660000a 	sh	zero,10(s3)
  409780:	0320f809 	jalr	t9
  409784:	a2620002 	sb	v0,2(s3)
  409788:	08102556 	j	409558 <local_output_ctrl+0xf8>
  40978c:	8fbc0010 	lw	gp,16(sp)
  409790:	90820009 	lbu	v0,9(a0)
  409794:	10400018 	beqz	v0,4097f8 <local_output_ctrl+0x398>
  409798:	8f9980f0 	lw	t9,-32528(gp)
  40979c:	24030001 	li	v1,1
  4097a0:	1043002a 	beq	v0,v1,40984c <local_output_ctrl+0x3ec>
  4097a4:	8f9981b4 	lw	t9,-32332(gp)
  4097a8:	24030002 	li	v1,2
  4097ac:	1443ff59 	bne	v0,v1,409514 <local_output_ctrl+0xb4>
  4097b0:	3c020041 	lui	v0,0x41
  4097b4:	8f9981b4 	lw	t9,-32332(gp)
  4097b8:	0320f809 	jalr	t9
  4097bc:	2444d2c0 	addiu	a0,v0,-11584
  4097c0:	8fbc0010 	lw	gp,16(sp)
  4097c4:	8f9980f0 	lw	t9,-32528(gp)
  4097c8:	0320f809 	jalr	t9
  4097cc:	00002021 	move	a0,zero
  4097d0:	8fbc0010 	lw	gp,16(sp)
  4097d4:	8f9980f4 	lw	t9,-32524(gp)
  4097d8:	0320f809 	jalr	t9
  4097dc:	00002021 	move	a0,zero
  4097e0:	8fbc0010 	lw	gp,16(sp)
  4097e4:	8f9980f8 	lw	t9,-32520(gp)
  4097e8:	0320f809 	jalr	t9
  4097ec:	24040001 	li	a0,1
  4097f0:	08102545 	j	409514 <local_output_ctrl+0xb4>
  4097f4:	8fbc0010 	lw	gp,16(sp)
  4097f8:	afa3001c 	sw	v1,28(sp)
  4097fc:	0320f809 	jalr	t9
  409800:	24040001 	li	a0,1
  409804:	8fbc0010 	lw	gp,16(sp)
  409808:	8f9980f4 	lw	t9,-32524(gp)
  40980c:	0320f809 	jalr	t9
  409810:	00002021 	move	a0,zero
  409814:	8fbc0010 	lw	gp,16(sp)
  409818:	8f9980f8 	lw	t9,-32520(gp)
  40981c:	0320f809 	jalr	t9
  409820:	00002021 	move	a0,zero
  409824:	8fbc0010 	lw	gp,16(sp)
  409828:	8fa3001c 	lw	v1,28(sp)
  40982c:	8f848084 	lw	a0,-32636(gp)
  409830:	8c820000 	lw	v0,0(a0)
  409834:	1443ff37 	bne	v0,v1,409514 <local_output_ctrl+0xb4>
  409838:	24030001 	li	v1,1
  40983c:	90820009 	lbu	v0,9(a0)
  409840:	1443ffda 	bne	v0,v1,4097ac <local_output_ctrl+0x34c>
  409844:	24030002 	li	v1,2
  409848:	8f9981b4 	lw	t9,-32332(gp)
  40984c:	3c020041 	lui	v0,0x41
  409850:	0320f809 	jalr	t9
  409854:	2444d2a4 	addiu	a0,v0,-11612
  409858:	8fbc0010 	lw	gp,16(sp)
  40985c:	8f9980f0 	lw	t9,-32528(gp)
  409860:	0320f809 	jalr	t9
  409864:	00002021 	move	a0,zero
  409868:	8fbc0010 	lw	gp,16(sp)
  40986c:	8f9980f4 	lw	t9,-32524(gp)
  409870:	0320f809 	jalr	t9
  409874:	24040001 	li	a0,1
  409878:	8fbc0010 	lw	gp,16(sp)
  40987c:	8f9980f8 	lw	t9,-32520(gp)
  409880:	0320f809 	jalr	t9
  409884:	00002021 	move	a0,zero
  409888:	8e430000 	lw	v1,0(s2)
  40988c:	2402004f 	li	v0,79
  409890:	1462ff20 	bne	v1,v0,409514 <local_output_ctrl+0xb4>
  409894:	8fbc0010 	lw	gp,16(sp)
  409898:	8f838084 	lw	v1,-32636(gp)
  40989c:	081025ea 	j	4097a8 <local_output_ctrl+0x348>
  4098a0:	90620009 	lbu	v0,9(v1)
  4098a4:	8e050000 	lw	a1,0(s0)
  4098a8:	14a3ff3b 	bne	a1,v1,409598 <local_output_ctrl+0x138>
  4098ac:	a080000e 	sb	zero,14(a0)
  4098b0:	8f84808c 	lw	a0,-32628(gp)
  4098b4:	90830008 	lbu	v1,8(a0)
  4098b8:	1462ff37 	bne	v1,v0,409598 <local_output_ctrl+0x138>
  4098bc:	00000000 	nop
  4098c0:	92420009 	lbu	v0,9(s2)
  4098c4:	104000b6 	beqz	v0,409ba0 <local_output_ctrl+0x740>
  4098c8:	8f9980fc 	lw	t9,-32516(gp)
  4098cc:	24030001 	li	v1,1
  4098d0:	104300bf 	beq	v0,v1,409bd0 <local_output_ctrl+0x770>
  4098d4:	8f998100 	lw	t9,-32512(gp)
  4098d8:	24030002 	li	v1,2
  4098dc:	10430007 	beq	v0,v1,4098fc <local_output_ctrl+0x49c>
  4098e0:	8f998104 	lw	t9,-32508(gp)
  4098e4:	8e220000 	lw	v0,0(s1)
  4098e8:	24030077 	li	v1,119
  4098ec:	1043ff2a 	beq	v0,v1,409598 <local_output_ctrl+0x138>
  4098f0:	8f99820c 	lw	t9,-32244(gp)
  4098f4:	08102531 	j	4094c4 <local_output_ctrl+0x64>
  4098f8:	8f848078 	lw	a0,-32648(gp)
  4098fc:	0320f809 	jalr	t9
  409900:	00000000 	nop
  409904:	1840fff7 	blez	v0,4098e4 <local_output_ctrl+0x484>
  409908:	8fbc0010 	lw	gp,16(sp)
  40990c:	24030003 	li	v1,3
  409910:	8e220000 	lw	v0,0(s1)
  409914:	0810263a 	j	4098e8 <local_output_ctrl+0x488>
  409918:	a663000a 	sh	v1,10(s3)
  40991c:	3c020041 	lui	v0,0x41
  409920:	afa3001c 	sw	v1,28(sp)
  409924:	0320f809 	jalr	t9
  409928:	2444d284 	addiu	a0,v0,-11644
  40992c:	8fbc0010 	lw	gp,16(sp)
  409930:	8f9980b8 	lw	t9,-32584(gp)
  409934:	0320f809 	jalr	t9
  409938:	24040001 	li	a0,1
  40993c:	8fa3001c 	lw	v1,28(sp)
  409940:	8fbc0010 	lw	gp,16(sp)
  409944:	08102541 	j	409504 <local_output_ctrl+0xa4>
  409948:	a7c30002 	sh	v1,2(s8)
  40994c:	afa3001c 	sw	v1,28(sp)
  409950:	0320f809 	jalr	t9
  409954:	24040001 	li	a0,1
  409958:	8fa3001c 	lw	v1,28(sp)
  40995c:	92460009 	lbu	a2,9(s2)
  409960:	8fbc0010 	lw	gp,16(sp)
  409964:	14c0001f 	bnez	a2,4099e4 <local_output_ctrl+0x584>
  409968:	a2630004 	sb	v1,4(s3)
  40996c:	8f8480ac 	lw	a0,-32596(gp)
  409970:	94820006 	lhu	v0,6(a0)
  409974:	14400031 	bnez	v0,409a3c <local_output_ctrl+0x5dc>
  409978:	00000000 	nop
  40997c:	90820000 	lbu	v0,0(a0)
  409980:	1443fef1 	bne	v0,v1,409548 <local_output_ctrl+0xe8>
  409984:	8f998108 	lw	t9,-32504(gp)
  409988:	0320f809 	jalr	t9
  40998c:	24040001 	li	a0,1
  409990:	8fbc0010 	lw	gp,16(sp)
  409994:	00002021 	move	a0,zero
  409998:	8f99810c 	lw	t9,-32500(gp)
  40999c:	0320f809 	jalr	t9
  4099a0:	00000000 	nop
  4099a4:	8fbc0010 	lw	gp,16(sp)
  4099a8:	00002021 	move	a0,zero
  4099ac:	8f998110 	lw	t9,-32496(gp)
  4099b0:	0320f809 	jalr	t9
  4099b4:	00000000 	nop
  4099b8:	8fbc0010 	lw	gp,16(sp)
  4099bc:	00002021 	move	a0,zero
  4099c0:	8f998114 	lw	t9,-32492(gp)
  4099c4:	0320f809 	jalr	t9
  4099c8:	00000000 	nop
  4099cc:	8fbc0010 	lw	gp,16(sp)
  4099d0:	8f998118 	lw	t9,-32488(gp)
  4099d4:	0320f809 	jalr	t9
  4099d8:	00002021 	move	a0,zero
  4099dc:	08102552 	j	409548 <local_output_ctrl+0xe8>
  4099e0:	8fbc0010 	lw	gp,16(sp)
  4099e4:	10c30033 	beq	a2,v1,409ab4 <local_output_ctrl+0x654>
  4099e8:	24020002 	li	v0,2
  4099ec:	14c2fed6 	bne	a2,v0,409548 <local_output_ctrl+0xe8>
  4099f0:	8f9981f8 	lw	t9,-32264(gp)
  4099f4:	8f8480ac 	lw	a0,-32596(gp)
  4099f8:	9485000a 	lhu	a1,10(a0)
  4099fc:	3c020041 	lui	v0,0x41
  409a00:	2444d2dc 	addiu	a0,v0,-11556
  409a04:	afa3001c 	sw	v1,28(sp)
  409a08:	0320f809 	jalr	t9
  409a0c:	afa60018 	sw	a2,24(sp)
  409a10:	8fbc0010 	lw	gp,16(sp)
  409a14:	8fa3001c 	lw	v1,28(sp)
  409a18:	8f8480ac 	lw	a0,-32596(gp)
  409a1c:	9482000a 	lhu	v0,10(a0)
  409a20:	14400038 	bnez	v0,409b04 <local_output_ctrl+0x6a4>
  409a24:	8fa60018 	lw	a2,24(sp)
  409a28:	90820002 	lbu	v0,2(a0)
  409a2c:	1443fec6 	bne	v0,v1,409548 <local_output_ctrl+0xe8>
  409a30:	8f998108 	lw	t9,-32504(gp)
  409a34:	08102662 	j	409988 <local_output_ctrl+0x528>
  409a38:	00000000 	nop
  409a3c:	1043002b 	beq	v0,v1,409aec <local_output_ctrl+0x68c>
  409a40:	8f998108 	lw	t9,-32504(gp)
  409a44:	24030002 	li	v1,2
  409a48:	10430033 	beq	v0,v1,409b18 <local_output_ctrl+0x6b8>
  409a4c:	8f998108 	lw	t9,-32504(gp)
  409a50:	24030003 	li	v1,3
  409a54:	10430043 	beq	v0,v1,409b64 <local_output_ctrl+0x704>
  409a58:	24030004 	li	v1,4
  409a5c:	1443feba 	bne	v0,v1,409548 <local_output_ctrl+0xe8>
  409a60:	8f998108 	lw	t9,-32504(gp)
  409a64:	0320f809 	jalr	t9
  409a68:	00002021 	move	a0,zero
  409a6c:	8fbc0010 	lw	gp,16(sp)
  409a70:	8f99810c 	lw	t9,-32500(gp)
  409a74:	0320f809 	jalr	t9
  409a78:	00002021 	move	a0,zero
  409a7c:	8fbc0010 	lw	gp,16(sp)
  409a80:	8f998110 	lw	t9,-32496(gp)
  409a84:	0320f809 	jalr	t9
  409a88:	00002021 	move	a0,zero
  409a8c:	8fbc0010 	lw	gp,16(sp)
  409a90:	8f998114 	lw	t9,-32492(gp)
  409a94:	0320f809 	jalr	t9
  409a98:	00002021 	move	a0,zero
  409a9c:	8fbc0010 	lw	gp,16(sp)
  409aa0:	8f998118 	lw	t9,-32488(gp)
  409aa4:	0320f809 	jalr	t9
  409aa8:	24040001 	li	a0,1
  409aac:	08102552 	j	409548 <local_output_ctrl+0xe8>
  409ab0:	8fbc0010 	lw	gp,16(sp)
  409ab4:	8f8380ac 	lw	v1,-32596(gp)
  409ab8:	94620008 	lhu	v0,8(v1)
  409abc:	14400020 	bnez	v0,409b40 <local_output_ctrl+0x6e0>
  409ac0:	00000000 	nop
  409ac4:	90620001 	lbu	v0,1(v1)
  409ac8:	1446fe9f 	bne	v0,a2,409548 <local_output_ctrl+0xe8>
  409acc:	8f998108 	lw	t9,-32504(gp)
  409ad0:	08102662 	j	409988 <local_output_ctrl+0x528>
  409ad4:	00000000 	nop
  409ad8:	3c020041 	lui	v0,0x41
  409adc:	0320f809 	jalr	t9
  409ae0:	2444d2fc 	addiu	a0,v0,-11524
  409ae4:	8fbc0010 	lw	gp,16(sp)
  409ae8:	8f998108 	lw	t9,-32504(gp)
  409aec:	0320f809 	jalr	t9
  409af0:	00002021 	move	a0,zero
  409af4:	8fbc0010 	lw	gp,16(sp)
  409af8:	24040001 	li	a0,1
  409afc:	08102667 	j	40999c <local_output_ctrl+0x53c>
  409b00:	8f99810c 	lw	t9,-32500(gp)
  409b04:	1043fff4 	beq	v0,v1,409ad8 <local_output_ctrl+0x678>
  409b08:	8f9981b4 	lw	t9,-32332(gp)
  409b0c:	1446ffd1 	bne	v0,a2,409a54 <local_output_ctrl+0x5f4>
  409b10:	24030003 	li	v1,3
  409b14:	8f998108 	lw	t9,-32504(gp)
  409b18:	0320f809 	jalr	t9
  409b1c:	00002021 	move	a0,zero
  409b20:	8fbc0010 	lw	gp,16(sp)
  409b24:	8f99810c 	lw	t9,-32500(gp)
  409b28:	0320f809 	jalr	t9
  409b2c:	00002021 	move	a0,zero
  409b30:	8fbc0010 	lw	gp,16(sp)
  409b34:	24040001 	li	a0,1
  409b38:	0810266c 	j	4099b0 <local_output_ctrl+0x550>
  409b3c:	8f998110 	lw	t9,-32496(gp)
  409b40:	1446ffc1 	bne	v0,a2,409a48 <local_output_ctrl+0x5e8>
  409b44:	24030002 	li	v1,2
  409b48:	8f998108 	lw	t9,-32504(gp)
  409b4c:	0320f809 	jalr	t9
  409b50:	00002021 	move	a0,zero
  409b54:	8fbc0010 	lw	gp,16(sp)
  409b58:	24040001 	li	a0,1
  409b5c:	08102667 	j	40999c <local_output_ctrl+0x53c>
  409b60:	8f99810c 	lw	t9,-32500(gp)
  409b64:	8f998108 	lw	t9,-32504(gp)
  409b68:	0320f809 	jalr	t9
  409b6c:	00002021 	move	a0,zero
  409b70:	8fbc0010 	lw	gp,16(sp)
  409b74:	8f99810c 	lw	t9,-32500(gp)
  409b78:	0320f809 	jalr	t9
  409b7c:	00002021 	move	a0,zero
  409b80:	8fbc0010 	lw	gp,16(sp)
  409b84:	8f998110 	lw	t9,-32496(gp)
  409b88:	0320f809 	jalr	t9
  409b8c:	00002021 	move	a0,zero
  409b90:	8fbc0010 	lw	gp,16(sp)
  409b94:	24040001 	li	a0,1
  409b98:	08102671 	j	4099c4 <local_output_ctrl+0x564>
  409b9c:	8f998114 	lw	t9,-32492(gp)
  409ba0:	0320f809 	jalr	t9
  409ba4:	00000000 	nop
  409ba8:	18400065 	blez	v0,409d40 <local_output_ctrl+0x8e0>
  409bac:	8fbc0010 	lw	gp,16(sp)
  409bb0:	8f848084 	lw	a0,-32636(gp)
  409bb4:	24030003 	li	v1,3
  409bb8:	90820009 	lbu	v0,9(a0)
  409bbc:	a6630006 	sh	v1,6(s3)
  409bc0:	24030001 	li	v1,1
  409bc4:	1443ff45 	bne	v0,v1,4098dc <local_output_ctrl+0x47c>
  409bc8:	24030002 	li	v1,2
  409bcc:	8f998100 	lw	t9,-32512(gp)
  409bd0:	0320f809 	jalr	t9
  409bd4:	00000000 	nop
  409bd8:	18400069 	blez	v0,409d80 <local_output_ctrl+0x920>
  409bdc:	8fbc0010 	lw	gp,16(sp)
  409be0:	24030003 	li	v1,3
  409be4:	92420009 	lbu	v0,9(s2)
  409be8:	08102636 	j	4098d8 <local_output_ctrl+0x478>
  409bec:	a6630008 	sh	v1,8(s3)
  409bf0:	0320f809 	jalr	t9
  409bf4:	00000000 	nop
  409bf8:	18400054 	blez	v0,409d4c <local_output_ctrl+0x8ec>
  409bfc:	8fbc0010 	lw	gp,16(sp)
  409c00:	8f848084 	lw	a0,-32636(gp)
  409c04:	24030004 	li	v1,4
  409c08:	90820009 	lbu	v0,9(a0)
  409c0c:	a6630006 	sh	v1,6(s3)
  409c10:	24030001 	li	v1,1
  409c14:	1443fe75 	bne	v0,v1,4095ec <local_output_ctrl+0x18c>
  409c18:	24030002 	li	v1,2
  409c1c:	8f9980c4 	lw	t9,-32572(gp)
  409c20:	0320f809 	jalr	t9
  409c24:	00000000 	nop
  409c28:	18400051 	blez	v0,409d70 <local_output_ctrl+0x910>
  409c2c:	8fbc0010 	lw	gp,16(sp)
  409c30:	24030004 	li	v1,4
  409c34:	92420009 	lbu	v0,9(s2)
  409c38:	0810257a 	j	4095e8 <local_output_ctrl+0x188>
  409c3c:	a6630008 	sh	v1,8(s3)
  409c40:	0320f809 	jalr	t9
  409c44:	afa3001c 	sw	v1,28(sp)
  409c48:	8fbc0010 	lw	gp,16(sp)
  409c4c:	18400045 	blez	v0,409d64 <local_output_ctrl+0x904>
  409c50:	8fa3001c 	lw	v1,28(sp)
  409c54:	8f828084 	lw	v0,-32636(gp)
  409c58:	a6600006 	sh	zero,6(s3)
  409c5c:	90440009 	lbu	a0,9(v0)
  409c60:	24020001 	li	v0,1
  409c64:	1482feba 	bne	a0,v0,409750 <local_output_ctrl+0x2f0>
  409c68:	a2630000 	sb	v1,0(s3)
  409c6c:	8f9980e8 	lw	t9,-32536(gp)
  409c70:	0320f809 	jalr	t9
  409c74:	afa40018 	sw	a0,24(sp)
  409c78:	8fbc0010 	lw	gp,16(sp)
  409c7c:	1840003e 	blez	v0,409d78 <local_output_ctrl+0x918>
  409c80:	8fa40018 	lw	a0,24(sp)
  409c84:	a2640001 	sb	a0,1(s3)
  409c88:	a6600008 	sh	zero,8(s3)
  409c8c:	081025d4 	j	409750 <local_output_ctrl+0x2f0>
  409c90:	92440009 	lbu	a0,9(s2)
  409c94:	0320f809 	jalr	t9
  409c98:	00000000 	nop
  409c9c:	1840002e 	blez	v0,409d58 <local_output_ctrl+0x8f8>
  409ca0:	8fbc0010 	lw	gp,16(sp)
  409ca4:	8f848084 	lw	a0,-32636(gp)
  409ca8:	24020002 	li	v0,2
  409cac:	90830009 	lbu	v1,9(a0)
  409cb0:	a6620006 	sh	v0,6(s3)
  409cb4:	24020001 	li	v0,1
  409cb8:	1462fe68 	bne	v1,v0,40965c <local_output_ctrl+0x1fc>
  409cbc:	24020002 	li	v0,2
  409cc0:	8f9980d0 	lw	t9,-32560(gp)
  409cc4:	0320f809 	jalr	t9
  409cc8:	00000000 	nop
  409ccc:	8fbc0010 	lw	gp,16(sp)
  409cd0:	1840fe61 	blez	v0,409658 <local_output_ctrl+0x1f8>
  409cd4:	92430009 	lbu	v1,9(s2)
  409cd8:	24020002 	li	v0,2
  409cdc:	08102596 	j	409658 <local_output_ctrl+0x1f8>
  409ce0:	a6620008 	sh	v0,8(s3)
  409ce4:	0320f809 	jalr	t9
  409ce8:	afa3001c 	sw	v1,28(sp)
  409cec:	8fbc0010 	lw	gp,16(sp)
  409cf0:	18400010 	blez	v0,409d34 <local_output_ctrl+0x8d4>
  409cf4:	8fa3001c 	lw	v1,28(sp)
  409cf8:	8f828084 	lw	v0,-32636(gp)
  409cfc:	a6630006 	sh	v1,6(s3)
  409d00:	90440009 	lbu	a0,9(v0)
  409d04:	24020001 	li	v0,1
  409d08:	1482fe6f 	bne	a0,v0,4096c8 <local_output_ctrl+0x268>
  409d0c:	24020002 	li	v0,2
  409d10:	8f9980dc 	lw	t9,-32548(gp)
  409d14:	0320f809 	jalr	t9
  409d18:	afa40018 	sw	a0,24(sp)
  409d1c:	8fbc0010 	lw	gp,16(sp)
  409d20:	18400002 	blez	v0,409d2c <local_output_ctrl+0x8cc>
  409d24:	8fa40018 	lw	a0,24(sp)
  409d28:	a6640008 	sh	a0,8(s3)
  409d2c:	081025b1 	j	4096c4 <local_output_ctrl+0x264>
  409d30:	92440009 	lbu	a0,9(s2)
  409d34:	8f828084 	lw	v0,-32636(gp)
  409d38:	081025ae 	j	4096b8 <local_output_ctrl+0x258>
  409d3c:	90440009 	lbu	a0,9(v0)
  409d40:	8f838084 	lw	v1,-32636(gp)
  409d44:	08102633 	j	4098cc <local_output_ctrl+0x46c>
  409d48:	90620009 	lbu	v0,9(v1)
  409d4c:	8f838084 	lw	v1,-32636(gp)
  409d50:	08102577 	j	4095dc <local_output_ctrl+0x17c>
  409d54:	90620009 	lbu	v0,9(v1)
  409d58:	8f828084 	lw	v0,-32636(gp)
  409d5c:	08102593 	j	40964c <local_output_ctrl+0x1ec>
  409d60:	90430009 	lbu	v1,9(v0)
  409d64:	8f828084 	lw	v0,-32636(gp)
  409d68:	081025d1 	j	409744 <local_output_ctrl+0x2e4>
  409d6c:	90440009 	lbu	a0,9(v0)
  409d70:	0810257a 	j	4095e8 <local_output_ctrl+0x188>
  409d74:	92420009 	lbu	v0,9(s2)
  409d78:	081025d4 	j	409750 <local_output_ctrl+0x2f0>
  409d7c:	92440009 	lbu	a0,9(s2)
  409d80:	08102636 	j	4098d8 <local_output_ctrl+0x478>
  409d84:	92420009 	lbu	v0,9(s2)

00409d88 <local_input_ctrl>:
  409d88:	3c1c0042 	lui	gp,0x42
  409d8c:	27bdffc8 	addiu	sp,sp,-56
  409d90:	279c5520 	addiu	gp,gp,21792
  409d94:	afb4002c 	sw	s4,44(sp)
  409d98:	afb30028 	sw	s3,40(sp)
  409d9c:	afb20024 	sw	s2,36(sp)
  409da0:	afb10020 	sw	s1,32(sp)
  409da4:	3c12000f 	lui	s2,0xf
  409da8:	8f9380ac 	lw	s3,-32596(gp)
  409dac:	8f948084 	lw	s4,-32636(gp)
  409db0:	8f9180a8 	lw	s1,-32600(gp)
  409db4:	afb50030 	sw	s5,48(sp)
  409db8:	afb0001c 	sw	s0,28(sp)
  409dbc:	afbf0034 	sw	ra,52(sp)
  409dc0:	afbc0010 	sw	gp,16(sp)
  409dc4:	26524240 	addiu	s2,s2,16960
  409dc8:	24100001 	li	s0,1
  409dcc:	24150002 	li	s5,2
  409dd0:	8f9981c4 	lw	t9,-32316(gp)
  409dd4:	0320f809 	jalr	t9
  409dd8:	02402021 	move	a0,s2
  409ddc:	92620004 	lbu	v0,4(s3)
  409de0:	1440fffb 	bnez	v0,409dd0 <local_input_ctrl+0x48>
  409de4:	8fbc0010 	lw	gp,16(sp)
  409de8:	92820009 	lbu	v0,9(s4)
  409dec:	1440002e 	bnez	v0,409ea8 <local_input_ctrl+0x120>
  409df0:	00000000 	nop
  409df4:	92220000 	lbu	v0,0(s1)
  409df8:	10500089 	beq	v0,s0,40a020 <local_input_ctrl+0x298>
  409dfc:	8f998108 	lw	t9,-32504(gp)
  409e00:	0320f809 	jalr	t9
  409e04:	00002021 	move	a0,zero
  409e08:	8fbc0010 	lw	gp,16(sp)
  409e0c:	92220001 	lbu	v0,1(s1)
  409e10:	1050007f 	beq	v0,s0,40a010 <local_input_ctrl+0x288>
  409e14:	8f99810c 	lw	t9,-32500(gp)
  409e18:	0320f809 	jalr	t9
  409e1c:	00002021 	move	a0,zero
  409e20:	8fbc0010 	lw	gp,16(sp)
  409e24:	92220002 	lbu	v0,2(s1)
  409e28:	10500075 	beq	v0,s0,40a000 <local_input_ctrl+0x278>
  409e2c:	8f998110 	lw	t9,-32496(gp)
  409e30:	0320f809 	jalr	t9
  409e34:	00002021 	move	a0,zero
  409e38:	8fbc0010 	lw	gp,16(sp)
  409e3c:	92220003 	lbu	v0,3(s1)
  409e40:	1050006b 	beq	v0,s0,409ff0 <local_input_ctrl+0x268>
  409e44:	8f998114 	lw	t9,-32492(gp)
  409e48:	0320f809 	jalr	t9
  409e4c:	00002021 	move	a0,zero
  409e50:	8fbc0010 	lw	gp,16(sp)
  409e54:	92220004 	lbu	v0,4(s1)
  409e58:	10500061 	beq	v0,s0,409fe0 <local_input_ctrl+0x258>
  409e5c:	8f998118 	lw	t9,-32488(gp)
  409e60:	0320f809 	jalr	t9
  409e64:	00002021 	move	a0,zero
  409e68:	8fbc0010 	lw	gp,16(sp)
  409e6c:	92220005 	lbu	v0,5(s1)
  409e70:	10500032 	beq	v0,s0,409f3c <local_input_ctrl+0x1b4>
  409e74:	8f99811c 	lw	t9,-32484(gp)
  409e78:	0320f809 	jalr	t9
  409e7c:	00002021 	move	a0,zero
  409e80:	8fbc0010 	lw	gp,16(sp)
  409e84:	8f9981c4 	lw	t9,-32316(gp)
  409e88:	0320f809 	jalr	t9
  409e8c:	02402021 	move	a0,s2
  409e90:	92620004 	lbu	v0,4(s3)
  409e94:	1440ffce 	bnez	v0,409dd0 <local_input_ctrl+0x48>
  409e98:	8fbc0010 	lw	gp,16(sp)
  409e9c:	92820009 	lbu	v0,9(s4)
  409ea0:	1040ffd4 	beqz	v0,409df4 <local_input_ctrl+0x6c>
  409ea4:	00000000 	nop
  409ea8:	10500028 	beq	v0,s0,409f4c <local_input_ctrl+0x1c4>
  409eac:	00000000 	nop
  409eb0:	1455ffc7 	bne	v0,s5,409dd0 <local_input_ctrl+0x48>
  409eb4:	00000000 	nop
  409eb8:	9222000c 	lbu	v0,12(s1)
  409ebc:	10500080 	beq	v0,s0,40a0c0 <local_input_ctrl+0x338>
  409ec0:	8f998108 	lw	t9,-32504(gp)
  409ec4:	0320f809 	jalr	t9
  409ec8:	00002021 	move	a0,zero
  409ecc:	8fbc0010 	lw	gp,16(sp)
  409ed0:	9222000d 	lbu	v0,13(s1)
  409ed4:	10500076 	beq	v0,s0,40a0b0 <local_input_ctrl+0x328>
  409ed8:	8f99810c 	lw	t9,-32500(gp)
  409edc:	0320f809 	jalr	t9
  409ee0:	00002021 	move	a0,zero
  409ee4:	8fbc0010 	lw	gp,16(sp)
  409ee8:	9222000e 	lbu	v0,14(s1)
  409eec:	1050006c 	beq	v0,s0,40a0a0 <local_input_ctrl+0x318>
  409ef0:	8f998110 	lw	t9,-32496(gp)
  409ef4:	0320f809 	jalr	t9
  409ef8:	00002021 	move	a0,zero
  409efc:	8fbc0010 	lw	gp,16(sp)
  409f00:	9222000f 	lbu	v0,15(s1)
  409f04:	10500062 	beq	v0,s0,40a090 <local_input_ctrl+0x308>
  409f08:	8f998114 	lw	t9,-32492(gp)
  409f0c:	0320f809 	jalr	t9
  409f10:	00002021 	move	a0,zero
  409f14:	8fbc0010 	lw	gp,16(sp)
  409f18:	92220010 	lbu	v0,16(s1)
  409f1c:	10500058 	beq	v0,s0,40a080 <local_input_ctrl+0x2f8>
  409f20:	8f998118 	lw	t9,-32488(gp)
  409f24:	0320f809 	jalr	t9
  409f28:	00002021 	move	a0,zero
  409f2c:	8fbc0010 	lw	gp,16(sp)
  409f30:	92220011 	lbu	v0,17(s1)
  409f34:	1450ffd0 	bne	v0,s0,409e78 <local_input_ctrl+0xf0>
  409f38:	8f99811c 	lw	t9,-32484(gp)
  409f3c:	0320f809 	jalr	t9
  409f40:	24040001 	li	a0,1
  409f44:	08102774 	j	409dd0 <local_input_ctrl+0x48>
  409f48:	8fbc0010 	lw	gp,16(sp)
  409f4c:	92220006 	lbu	v0,6(s1)
  409f50:	10500047 	beq	v0,s0,40a070 <local_input_ctrl+0x2e8>
  409f54:	8f998108 	lw	t9,-32504(gp)
  409f58:	0320f809 	jalr	t9
  409f5c:	00002021 	move	a0,zero
  409f60:	8fbc0010 	lw	gp,16(sp)
  409f64:	92220007 	lbu	v0,7(s1)
  409f68:	1050003d 	beq	v0,s0,40a060 <local_input_ctrl+0x2d8>
  409f6c:	8f99810c 	lw	t9,-32500(gp)
  409f70:	0320f809 	jalr	t9
  409f74:	00002021 	move	a0,zero
  409f78:	8fbc0010 	lw	gp,16(sp)
  409f7c:	92220008 	lbu	v0,8(s1)
  409f80:	10500033 	beq	v0,s0,40a050 <local_input_ctrl+0x2c8>
  409f84:	8f998110 	lw	t9,-32496(gp)
  409f88:	0320f809 	jalr	t9
  409f8c:	00002021 	move	a0,zero
  409f90:	8fbc0010 	lw	gp,16(sp)
  409f94:	92220009 	lbu	v0,9(s1)
  409f98:	10500029 	beq	v0,s0,40a040 <local_input_ctrl+0x2b8>
  409f9c:	8f998114 	lw	t9,-32492(gp)
  409fa0:	0320f809 	jalr	t9
  409fa4:	00002021 	move	a0,zero
  409fa8:	8fbc0010 	lw	gp,16(sp)
  409fac:	9222000a 	lbu	v0,10(s1)
  409fb0:	1050001f 	beq	v0,s0,40a030 <local_input_ctrl+0x2a8>
  409fb4:	8f998118 	lw	t9,-32488(gp)
  409fb8:	0320f809 	jalr	t9
  409fbc:	00002021 	move	a0,zero
  409fc0:	8fbc0010 	lw	gp,16(sp)
  409fc4:	9222000b 	lbu	v0,11(s1)
  409fc8:	1450ffab 	bne	v0,s0,409e78 <local_input_ctrl+0xf0>
  409fcc:	8f99811c 	lw	t9,-32484(gp)
  409fd0:	0320f809 	jalr	t9
  409fd4:	24040001 	li	a0,1
  409fd8:	08102774 	j	409dd0 <local_input_ctrl+0x48>
  409fdc:	8fbc0010 	lw	gp,16(sp)
  409fe0:	0320f809 	jalr	t9
  409fe4:	24040001 	li	a0,1
  409fe8:	0810279b 	j	409e6c <local_input_ctrl+0xe4>
  409fec:	8fbc0010 	lw	gp,16(sp)
  409ff0:	0320f809 	jalr	t9
  409ff4:	24040001 	li	a0,1
  409ff8:	08102795 	j	409e54 <local_input_ctrl+0xcc>
  409ffc:	8fbc0010 	lw	gp,16(sp)
  40a000:	0320f809 	jalr	t9
  40a004:	24040001 	li	a0,1
  40a008:	0810278f 	j	409e3c <local_input_ctrl+0xb4>
  40a00c:	8fbc0010 	lw	gp,16(sp)
  40a010:	0320f809 	jalr	t9
  40a014:	24040001 	li	a0,1
  40a018:	08102789 	j	409e24 <local_input_ctrl+0x9c>
  40a01c:	8fbc0010 	lw	gp,16(sp)
  40a020:	0320f809 	jalr	t9
  40a024:	24040001 	li	a0,1
  40a028:	08102783 	j	409e0c <local_input_ctrl+0x84>
  40a02c:	8fbc0010 	lw	gp,16(sp)
  40a030:	0320f809 	jalr	t9
  40a034:	24040001 	li	a0,1
  40a038:	081027f1 	j	409fc4 <local_input_ctrl+0x23c>
  40a03c:	8fbc0010 	lw	gp,16(sp)
  40a040:	0320f809 	jalr	t9
  40a044:	24040001 	li	a0,1
  40a048:	081027eb 	j	409fac <local_input_ctrl+0x224>
  40a04c:	8fbc0010 	lw	gp,16(sp)
  40a050:	0320f809 	jalr	t9
  40a054:	24040001 	li	a0,1
  40a058:	081027e5 	j	409f94 <local_input_ctrl+0x20c>
  40a05c:	8fbc0010 	lw	gp,16(sp)
  40a060:	0320f809 	jalr	t9
  40a064:	24040001 	li	a0,1
  40a068:	081027df 	j	409f7c <local_input_ctrl+0x1f4>
  40a06c:	8fbc0010 	lw	gp,16(sp)
  40a070:	0320f809 	jalr	t9
  40a074:	24040001 	li	a0,1
  40a078:	081027d9 	j	409f64 <local_input_ctrl+0x1dc>
  40a07c:	8fbc0010 	lw	gp,16(sp)
  40a080:	0320f809 	jalr	t9
  40a084:	24040001 	li	a0,1
  40a088:	081027cc 	j	409f30 <local_input_ctrl+0x1a8>
  40a08c:	8fbc0010 	lw	gp,16(sp)
  40a090:	0320f809 	jalr	t9
  40a094:	24040001 	li	a0,1
  40a098:	081027c6 	j	409f18 <local_input_ctrl+0x190>
  40a09c:	8fbc0010 	lw	gp,16(sp)
  40a0a0:	0320f809 	jalr	t9
  40a0a4:	24040001 	li	a0,1
  40a0a8:	081027c0 	j	409f00 <local_input_ctrl+0x178>
  40a0ac:	8fbc0010 	lw	gp,16(sp)
  40a0b0:	0320f809 	jalr	t9
  40a0b4:	24040001 	li	a0,1
  40a0b8:	081027ba 	j	409ee8 <local_input_ctrl+0x160>
  40a0bc:	8fbc0010 	lw	gp,16(sp)
  40a0c0:	0320f809 	jalr	t9
  40a0c4:	24040001 	li	a0,1
  40a0c8:	081027b4 	j	409ed0 <local_input_ctrl+0x148>
  40a0cc:	8fbc0010 	lw	gp,16(sp)

0040a0d0 <network_connect_led>:
  40a0d0:	27bdffd0 	addiu	sp,sp,-48
  40a0d4:	3c1c0042 	lui	gp,0x42
  40a0d8:	afb30024 	sw	s3,36(sp)
  40a0dc:	3c13000f 	lui	s3,0xf
  40a0e0:	279c5520 	addiu	gp,gp,21792
  40a0e4:	afb1001c 	sw	s1,28(sp)
  40a0e8:	26734240 	addiu	s3,s3,16960
  40a0ec:	3c11001e 	lui	s1,0x1e
  40a0f0:	afb40028 	sw	s4,40(sp)
  40a0f4:	afb20020 	sw	s2,32(sp)
  40a0f8:	afb00018 	sw	s0,24(sp)
  40a0fc:	afbf002c 	sw	ra,44(sp)
  40a100:	afbc0010 	sw	gp,16(sp)
  40a104:	8f9280b0 	lw	s2,-32592(gp)
  40a108:	36318480 	ori	s1,s1,0x8480
  40a10c:	24100001 	li	s0,1
  40a110:	08102849 	j	40a124 <network_connect_led+0x54>
  40a114:	0260a021 	move	s4,s3
  40a118:	0320f809 	jalr	t9
  40a11c:	00000000 	nop
  40a120:	8fbc0010 	lw	gp,16(sp)
  40a124:	8f9981c4 	lw	t9,-32316(gp)
  40a128:	0320f809 	jalr	t9
  40a12c:	02202021 	move	a0,s1
  40a130:	8fbc0010 	lw	gp,16(sp)
  40a134:	92420013 	lbu	v0,19(s2)
  40a138:	24040001 	li	a0,1
  40a13c:	1450fff6 	bne	v0,s0,40a118 <network_connect_led+0x48>
  40a140:	8f998120 	lw	t9,-32480(gp)
  40a144:	8f9981c4 	lw	t9,-32316(gp)
  40a148:	0320f809 	jalr	t9
  40a14c:	02602021 	move	a0,s3
  40a150:	8fbc0010 	lw	gp,16(sp)
  40a154:	8f998120 	lw	t9,-32480(gp)
  40a158:	0320f809 	jalr	t9
  40a15c:	24040001 	li	a0,1
  40a160:	8fbc0010 	lw	gp,16(sp)
  40a164:	8f9981c4 	lw	t9,-32316(gp)
  40a168:	0320f809 	jalr	t9
  40a16c:	02802021 	move	a0,s4
  40a170:	8fbc0010 	lw	gp,16(sp)
  40a174:	8f998120 	lw	t9,-32480(gp)
  40a178:	0320f809 	jalr	t9
  40a17c:	00002021 	move	a0,zero
  40a180:	08102849 	j	40a124 <network_connect_led+0x54>
  40a184:	8fbc0010 	lw	gp,16(sp)

0040a188 <sys_fault_led>:
  40a188:	3c1c0042 	lui	gp,0x42
  40a18c:	27bdffc8 	addiu	sp,sp,-56
  40a190:	279c5520 	addiu	gp,gp,21792
  40a194:	afb40028 	sw	s4,40(sp)
  40a198:	afb30024 	sw	s3,36(sp)
  40a19c:	8f9480b0 	lw	s4,-32592(gp)
  40a1a0:	3c13000f 	lui	s3,0xf
  40a1a4:	26734240 	addiu	s3,s3,16960
  40a1a8:	afb60030 	sw	s6,48(sp)
  40a1ac:	afb5002c 	sw	s5,44(sp)
  40a1b0:	afb20020 	sw	s2,32(sp)
  40a1b4:	afb1001c 	sw	s1,28(sp)
  40a1b8:	afb00018 	sw	s0,24(sp)
  40a1bc:	afbf0034 	sw	ra,52(sp)
  40a1c0:	afbc0010 	sw	gp,16(sp)
  40a1c4:	00009021 	move	s2,zero
  40a1c8:	02808821 	move	s1,s4
  40a1cc:	24100001 	li	s0,1
  40a1d0:	24150002 	li	s5,2
  40a1d4:	0260b021 	move	s6,s3
  40a1d8:	8f9981c4 	lw	t9,-32316(gp)
  40a1dc:	0320f809 	jalr	t9
  40a1e0:	02602021 	move	a0,s3
  40a1e4:	8fbc0010 	lw	gp,16(sp)
  40a1e8:	92820007 	lbu	v0,7(s4)
  40a1ec:	24040001 	li	a0,1
  40a1f0:	10500024 	beq	v0,s0,40a284 <sys_fault_led+0xfc>
  40a1f4:	8f998124 	lw	t9,-32476(gp)
  40a1f8:	92220008 	lbu	v0,8(s1)
  40a1fc:	10500021 	beq	v0,s0,40a284 <sys_fault_led+0xfc>
  40a200:	00000000 	nop
  40a204:	92220010 	lbu	v0,16(s1)
  40a208:	10500005 	beq	v0,s0,40a220 <sys_fault_led+0x98>
  40a20c:	00000000 	nop
  40a210:	1250001f 	beq	s2,s0,40a290 <sys_fault_led+0x108>
  40a214:	00000000 	nop
  40a218:	1655ffef 	bne	s2,s5,40a1d8 <sys_fault_led+0x50>
  40a21c:	00000000 	nop
  40a220:	8f9981c4 	lw	t9,-32316(gp)
  40a224:	0320f809 	jalr	t9
  40a228:	02602021 	move	a0,s3
  40a22c:	8fbc0010 	lw	gp,16(sp)
  40a230:	24040001 	li	a0,1
  40a234:	8f998124 	lw	t9,-32476(gp)
  40a238:	0320f809 	jalr	t9
  40a23c:	24120002 	li	s2,2
  40a240:	8fbc0010 	lw	gp,16(sp)
  40a244:	8f9981c4 	lw	t9,-32316(gp)
  40a248:	0320f809 	jalr	t9
  40a24c:	02c02021 	move	a0,s6
  40a250:	8fbc0010 	lw	gp,16(sp)
  40a254:	8f998124 	lw	t9,-32476(gp)
  40a258:	0320f809 	jalr	t9
  40a25c:	00002021 	move	a0,zero
  40a260:	8fbc0010 	lw	gp,16(sp)
  40a264:	8f9981c4 	lw	t9,-32316(gp)
  40a268:	0320f809 	jalr	t9
  40a26c:	02602021 	move	a0,s3
  40a270:	8fbc0010 	lw	gp,16(sp)
  40a274:	92820007 	lbu	v0,7(s4)
  40a278:	24040001 	li	a0,1
  40a27c:	1450ffde 	bne	v0,s0,40a1f8 <sys_fault_led+0x70>
  40a280:	8f998124 	lw	t9,-32476(gp)
  40a284:	92820010 	lbu	v0,16(s4)
  40a288:	1050ffe5 	beq	v0,s0,40a220 <sys_fault_led+0x98>
  40a28c:	00000000 	nop
  40a290:	0320f809 	jalr	t9
  40a294:	24120001 	li	s2,1
  40a298:	08102876 	j	40a1d8 <sys_fault_led+0x50>
  40a29c:	8fbc0010 	lw	gp,16(sp)

0040a2a0 <input_output_loop_check>:
  40a2a0:	3c1c0042 	lui	gp,0x42
  40a2a4:	27bdffb0 	addiu	sp,sp,-80
  40a2a8:	279c5520 	addiu	gp,gp,21792
  40a2ac:	24030001 	li	v1,1
  40a2b0:	8f9981c4 	lw	t9,-32316(gp)
  40a2b4:	afbe0048 	sw	s8,72(sp)
  40a2b8:	3c04000f 	lui	a0,0xf
  40a2bc:	8f9e80ac 	lw	s8,-32596(gp)
  40a2c0:	afb70044 	sw	s7,68(sp)
  40a2c4:	afb60040 	sw	s6,64(sp)
  40a2c8:	afb5003c 	sw	s5,60(sp)
  40a2cc:	afb40038 	sw	s4,56(sp)
  40a2d0:	afb30034 	sw	s3,52(sp)
  40a2d4:	afb20030 	sw	s2,48(sp)
  40a2d8:	afb1002c 	sw	s1,44(sp)
  40a2dc:	afb00028 	sw	s0,40(sp)
  40a2e0:	afbc0010 	sw	gp,16(sp)
  40a2e4:	afbf004c 	sw	ra,76(sp)
  40a2e8:	afa30020 	sw	v1,32(sp)
  40a2ec:	afa3001c 	sw	v1,28(sp)
  40a2f0:	afa30018 	sw	v1,24(sp)
  40a2f4:	8f9680a0 	lw	s6,-32608(gp)
  40a2f8:	8f9580b0 	lw	s5,-32592(gp)
  40a2fc:	0320f809 	jalr	t9
  40a300:	34844240 	ori	a0,a0,0x4240
  40a304:	97c20006 	lhu	v0,6(s8)
  40a308:	00009821 	move	s3,zero
  40a30c:	00009021 	move	s2,zero
  40a310:	00008821 	move	s1,zero
  40a314:	03c0a021 	move	s4,s8
  40a318:	24170001 	li	s7,1
  40a31c:	02c08021 	move	s0,s6
  40a320:	1440001a 	bnez	v0,40a38c <input_output_loop_check+0xec>
  40a324:	8fbc0010 	lw	gp,16(sp)
  40a328:	92820000 	lbu	v0,0(s4)
  40a32c:	10570068 	beq	v0,s7,40a4d0 <input_output_loop_check+0x230>
  40a330:	00000000 	nop
  40a334:	97c20008 	lhu	v0,8(s8)
  40a338:	0011202a 	slt	a0,zero,s1
  40a33c:	14400022 	bnez	v0,40a3c8 <input_output_loop_check+0x128>
  40a340:	a2a40010 	sb	a0,16(s5)
  40a344:	92820001 	lbu	v0,1(s4)
  40a348:	10570066 	beq	v0,s7,40a4e4 <input_output_loop_check+0x244>
  40a34c:	00000000 	nop
  40a350:	97c2000a 	lhu	v0,10(s8)
  40a354:	0012202a 	slt	a0,zero,s2
  40a358:	1440002a 	bnez	v0,40a404 <input_output_loop_check+0x164>
  40a35c:	a2a40011 	sb	a0,17(s5)
  40a360:	92820002 	lbu	v0,2(s4)
  40a364:	1057002e 	beq	v0,s7,40a420 <input_output_loop_check+0x180>
  40a368:	0013102a 	slt	v0,zero,s3
  40a36c:	a2a20012 	sb	v0,18(s5)
  40a370:	8f9981c4 	lw	t9,-32316(gp)
  40a374:	3c04000f 	lui	a0,0xf
  40a378:	0320f809 	jalr	t9
  40a37c:	34844240 	ori	a0,a0,0x4240
  40a380:	97c20006 	lhu	v0,6(s8)
  40a384:	1040ffe8 	beqz	v0,40a328 <input_output_loop_check+0x88>
  40a388:	8fbc0010 	lw	gp,16(sp)
  40a38c:	14570046 	bne	v0,s7,40a4a8 <input_output_loop_check+0x208>
  40a390:	24030002 	li	v1,2
  40a394:	82c20001 	lb	v0,1(s6)
  40a398:	1040ffe6 	beqz	v0,40a334 <input_output_loop_check+0x94>
  40a39c:	00000000 	nop
  40a3a0:	82020004 	lb	v0,4(s0)
  40a3a4:	1040ffe3 	beqz	v0,40a334 <input_output_loop_check+0x94>
  40a3a8:	8fa30018 	lw	v1,24(sp)
  40a3ac:	97c20008 	lhu	v0,8(s8)
  40a3b0:	02238825 	or	s1,s1,v1
  40a3b4:	0011202a 	slt	a0,zero,s1
  40a3b8:	00031840 	sll	v1,v1,0x1
  40a3bc:	afa30018 	sw	v1,24(sp)
  40a3c0:	1040ffe0 	beqz	v0,40a344 <input_output_loop_check+0xa4>
  40a3c4:	a2a40010 	sb	a0,16(s5)
  40a3c8:	1457002d 	bne	v0,s7,40a480 <input_output_loop_check+0x1e0>
  40a3cc:	24030002 	li	v1,2
  40a3d0:	82c20008 	lb	v0,8(s6)
  40a3d4:	1040ffde 	beqz	v0,40a350 <input_output_loop_check+0xb0>
  40a3d8:	00000000 	nop
  40a3dc:	8202000b 	lb	v0,11(s0)
  40a3e0:	1040ffdb 	beqz	v0,40a350 <input_output_loop_check+0xb0>
  40a3e4:	8fa3001c 	lw	v1,28(sp)
  40a3e8:	97c2000a 	lhu	v0,10(s8)
  40a3ec:	02439025 	or	s2,s2,v1
  40a3f0:	0012202a 	slt	a0,zero,s2
  40a3f4:	00031840 	sll	v1,v1,0x1
  40a3f8:	afa3001c 	sw	v1,28(sp)
  40a3fc:	1040ffd8 	beqz	v0,40a360 <input_output_loop_check+0xc0>
  40a400:	a2a40011 	sb	a0,17(s5)
  40a404:	14570013 	bne	v0,s7,40a454 <input_output_loop_check+0x1b4>
  40a408:	24030002 	li	v1,2
  40a40c:	82c2000f 	lb	v0,15(s6)
  40a410:	14400006 	bnez	v0,40a42c <input_output_loop_check+0x18c>
  40a414:	0013102a 	slt	v0,zero,s3
  40a418:	081028dc 	j	40a370 <input_output_loop_check+0xd0>
  40a41c:	a2a20012 	sb	v0,18(s5)
  40a420:	82c2000e 	lb	v0,14(s6)
  40a424:	1040ffd1 	beqz	v0,40a36c <input_output_loop_check+0xcc>
  40a428:	0013102a 	slt	v0,zero,s3
  40a42c:	82020012 	lb	v0,18(s0)
  40a430:	1040ffce 	beqz	v0,40a36c <input_output_loop_check+0xcc>
  40a434:	0013102a 	slt	v0,zero,s3
  40a438:	8fa30020 	lw	v1,32(sp)
  40a43c:	02639825 	or	s3,s3,v1
  40a440:	0013102a 	slt	v0,zero,s3
  40a444:	00031840 	sll	v1,v1,0x1
  40a448:	afa30020 	sw	v1,32(sp)
  40a44c:	081028dc 	j	40a370 <input_output_loop_check+0xd0>
  40a450:	a2a20012 	sb	v0,18(s5)
  40a454:	1443002f 	bne	v0,v1,40a514 <input_output_loop_check+0x274>
  40a458:	24040003 	li	a0,3
  40a45c:	82c2000f 	lb	v0,15(s6)
  40a460:	1040ffc2 	beqz	v0,40a36c <input_output_loop_check+0xcc>
  40a464:	0013102a 	slt	v0,zero,s3
  40a468:	82020011 	lb	v0,17(s0)
  40a46c:	1440fff3 	bnez	v0,40a43c <input_output_loop_check+0x19c>
  40a470:	8fa30020 	lw	v1,32(sp)
  40a474:	0013102a 	slt	v0,zero,s3
  40a478:	081028dc 	j	40a370 <input_output_loop_check+0xd0>
  40a47c:	a2a20012 	sb	v0,18(s5)
  40a480:	1443001d 	bne	v0,v1,40a4f8 <input_output_loop_check+0x258>
  40a484:	24040003 	li	a0,3
  40a488:	82c20008 	lb	v0,8(s6)
  40a48c:	1040ffb0 	beqz	v0,40a350 <input_output_loop_check+0xb0>
  40a490:	00000000 	nop
  40a494:	8202000a 	lb	v0,10(s0)
  40a498:	1040ffad 	beqz	v0,40a350 <input_output_loop_check+0xb0>
  40a49c:	8fa3001c 	lw	v1,28(sp)
  40a4a0:	081028fb 	j	40a3ec <input_output_loop_check+0x14c>
  40a4a4:	97c2000a 	lhu	v0,10(s8)
  40a4a8:	14430021 	bne	v0,v1,40a530 <input_output_loop_check+0x290>
  40a4ac:	24040003 	li	a0,3
  40a4b0:	82c20001 	lb	v0,1(s6)
  40a4b4:	1040ff9f 	beqz	v0,40a334 <input_output_loop_check+0x94>
  40a4b8:	00000000 	nop
  40a4bc:	82020003 	lb	v0,3(s0)
  40a4c0:	1040ff9c 	beqz	v0,40a334 <input_output_loop_check+0x94>
  40a4c4:	8fa30018 	lw	v1,24(sp)
  40a4c8:	081028ec 	j	40a3b0 <input_output_loop_check+0x110>
  40a4cc:	97c20008 	lhu	v0,8(s8)
  40a4d0:	82c20000 	lb	v0,0(s6)
  40a4d4:	1040ff97 	beqz	v0,40a334 <input_output_loop_check+0x94>
  40a4d8:	00000000 	nop
  40a4dc:	081028e9 	j	40a3a4 <input_output_loop_check+0x104>
  40a4e0:	82020004 	lb	v0,4(s0)
  40a4e4:	82c20007 	lb	v0,7(s6)
  40a4e8:	1040ff99 	beqz	v0,40a350 <input_output_loop_check+0xb0>
  40a4ec:	00000000 	nop
  40a4f0:	081028f8 	j	40a3e0 <input_output_loop_check+0x140>
  40a4f4:	8202000b 	lb	v0,11(s0)
  40a4f8:	14440014 	bne	v0,a0,40a54c <input_output_loop_check+0x2ac>
  40a4fc:	00000000 	nop
  40a500:	82c20009 	lb	v0,9(s6)
  40a504:	1040ff92 	beqz	v0,40a350 <input_output_loop_check+0xb0>
  40a508:	00000000 	nop
  40a50c:	081028f8 	j	40a3e0 <input_output_loop_check+0x140>
  40a510:	8202000b 	lb	v0,11(s0)
  40a514:	14440018 	bne	v0,a0,40a578 <input_output_loop_check+0x2d8>
  40a518:	00000000 	nop
  40a51c:	82c20010 	lb	v0,16(s6)
  40a520:	1440ffc2 	bnez	v0,40a42c <input_output_loop_check+0x18c>
  40a524:	0013102a 	slt	v0,zero,s3
  40a528:	081028dc 	j	40a370 <input_output_loop_check+0xd0>
  40a52c:	a2a20012 	sb	v0,18(s5)
  40a530:	1444001d 	bne	v0,a0,40a5a8 <input_output_loop_check+0x308>
  40a534:	00000000 	nop
  40a538:	82c20002 	lb	v0,2(s6)
  40a53c:	1040ff7d 	beqz	v0,40a334 <input_output_loop_check+0x94>
  40a540:	00000000 	nop
  40a544:	081028e9 	j	40a3a4 <input_output_loop_check+0x104>
  40a548:	82020004 	lb	v0,4(s0)
  40a54c:	24040004 	li	a0,4
  40a550:	1444ff7f 	bne	v0,a0,40a350 <input_output_loop_check+0xb0>
  40a554:	00000000 	nop
  40a558:	82c20008 	lb	v0,8(s6)
  40a55c:	1040ff7c 	beqz	v0,40a350 <input_output_loop_check+0xb0>
  40a560:	00000000 	nop
  40a564:	8202000c 	lb	v0,12(s0)
  40a568:	1040ff79 	beqz	v0,40a350 <input_output_loop_check+0xb0>
  40a56c:	8fa3001c 	lw	v1,28(sp)
  40a570:	081028fb 	j	40a3ec <input_output_loop_check+0x14c>
  40a574:	97c2000a 	lhu	v0,10(s8)
  40a578:	24040004 	li	a0,4
  40a57c:	1444ff7b 	bne	v0,a0,40a36c <input_output_loop_check+0xcc>
  40a580:	0013102a 	slt	v0,zero,s3
  40a584:	82c2000f 	lb	v0,15(s6)
  40a588:	1040ff78 	beqz	v0,40a36c <input_output_loop_check+0xcc>
  40a58c:	0013102a 	slt	v0,zero,s3
  40a590:	82020013 	lb	v0,19(s0)
  40a594:	1440ffa9 	bnez	v0,40a43c <input_output_loop_check+0x19c>
  40a598:	8fa30020 	lw	v1,32(sp)
  40a59c:	0013102a 	slt	v0,zero,s3
  40a5a0:	081028dc 	j	40a370 <input_output_loop_check+0xd0>
  40a5a4:	a2a20012 	sb	v0,18(s5)
  40a5a8:	24040004 	li	a0,4
  40a5ac:	1444ff61 	bne	v0,a0,40a334 <input_output_loop_check+0x94>
  40a5b0:	00000000 	nop
  40a5b4:	82c20001 	lb	v0,1(s6)
  40a5b8:	1040ff5e 	beqz	v0,40a334 <input_output_loop_check+0x94>
  40a5bc:	00000000 	nop
  40a5c0:	82020005 	lb	v0,5(s0)
  40a5c4:	1040ff5b 	beqz	v0,40a334 <input_output_loop_check+0x94>
  40a5c8:	8fa30018 	lw	v1,24(sp)
  40a5cc:	081028ec 	j	40a3b0 <input_output_loop_check+0x110>
  40a5d0:	97c20008 	lhu	v0,8(s8)
	...

0040a5e0 <remote_modbus_reg_update>:
  40a5e0:	3c1c0042 	lui	gp,0x42
  40a5e4:	27bdffc0 	addiu	sp,sp,-64
  40a5e8:	279c5520 	addiu	gp,gp,21792
  40a5ec:	afb10020 	sw	s1,32(sp)
  40a5f0:	8f9180b0 	lw	s1,-32592(gp)
  40a5f4:	afb4002c 	sw	s4,44(sp)
  40a5f8:	3c14000f 	lui	s4,0xf
  40a5fc:	afb70038 	sw	s7,56(sp)
  40a600:	afb60034 	sw	s6,52(sp)
  40a604:	afb50030 	sw	s5,48(sp)
  40a608:	afb30028 	sw	s3,40(sp)
  40a60c:	afb20024 	sw	s2,36(sp)
  40a610:	afb0001c 	sw	s0,28(sp)
  40a614:	afbf003c 	sw	ra,60(sp)
  40a618:	afbc0010 	sw	gp,16(sp)
  40a61c:	8f978128 	lw	s7,-32472(gp)
  40a620:	8f9080ac 	lw	s0,-32596(gp)
  40a624:	26944240 	addiu	s4,s4,16960
  40a628:	02209821 	move	s3,s1
  40a62c:	24160001 	li	s6,1
  40a630:	2415fffd 	li	s5,-3
  40a634:	08102999 	j	40a664 <remote_modbus_reg_update+0x84>
  40a638:	2412fffb 	li	s2,-5
  40a63c:	92240008 	lbu	a0,8(s1)
  40a640:	02a52824 	and	a1,s5,a1
  40a644:	10960029 	beq	a0,s6,40a6ec <remote_modbus_reg_update+0x10c>
  40a648:	00b21824 	and	v1,a1,s2
  40a64c:	96250000 	lhu	a1,0(s1)
  40a650:	96240002 	lhu	a0,2(s1)
  40a654:	a6230004 	sh	v1,4(s1)
  40a658:	a44500c6 	sh	a1,198(v0)
  40a65c:	a44400c8 	sh	a0,200(v0)
  40a660:	a44300ca 	sh	v1,202(v0)
  40a664:	8f9981c4 	lw	t9,-32316(gp)
  40a668:	0320f809 	jalr	t9
  40a66c:	02802021 	move	a0,s4
  40a670:	8ee20000 	lw	v0,0(s7)
  40a674:	9603000c 	lhu	v1,12(s0)
  40a678:	8c420028 	lw	v0,40(v0)
  40a67c:	8fbc0010 	lw	gp,16(sp)
  40a680:	a4430000 	sh	v1,0(v0)
  40a684:	9603000e 	lhu	v1,14(s0)
  40a688:	a4430002 	sh	v1,2(v0)
  40a68c:	96030006 	lhu	v1,6(s0)
  40a690:	a4430004 	sh	v1,4(v0)
  40a694:	96030010 	lhu	v1,16(s0)
  40a698:	a4430006 	sh	v1,6(v0)
  40a69c:	96040012 	lhu	a0,18(s0)
  40a6a0:	92230007 	lbu	v1,7(s1)
  40a6a4:	a4440008 	sh	a0,8(v0)
  40a6a8:	96040008 	lhu	a0,8(s0)
  40a6ac:	a444000a 	sh	a0,10(v0)
  40a6b0:	96040014 	lhu	a0,20(s0)
  40a6b4:	9605000a 	lhu	a1,10(s0)
  40a6b8:	a444000c 	sh	a0,12(v0)
  40a6bc:	96040016 	lhu	a0,22(s0)
  40a6c0:	a4450010 	sh	a1,16(v0)
  40a6c4:	a444000e 	sh	a0,14(v0)
  40a6c8:	96040018 	lhu	a0,24(s0)
  40a6cc:	96650004 	lhu	a1,4(s3)
  40a6d0:	1476ffda 	bne	v1,s6,40a63c <remote_modbus_reg_update+0x5c>
  40a6d4:	a4440012 	sh	a0,18(v0)
  40a6d8:	34a50002 	ori	a1,a1,0x2
  40a6dc:	92240008 	lbu	a0,8(s1)
  40a6e0:	30a5ffff 	andi	a1,a1,0xffff
  40a6e4:	1496ffd9 	bne	a0,s6,40a64c <remote_modbus_reg_update+0x6c>
  40a6e8:	00b21824 	and	v1,a1,s2
  40a6ec:	08102993 	j	40a64c <remote_modbus_reg_update+0x6c>
  40a6f0:	34a30004 	ori	v1,a1,0x4

0040a6f4 <remote_modbus_ctrl_lane>:
  40a6f4:	3c1c0042 	lui	gp,0x42
  40a6f8:	27bdffb8 	addiu	sp,sp,-72
  40a6fc:	279c5520 	addiu	gp,gp,21792
  40a700:	afb3002c 	sw	s3,44(sp)
  40a704:	8f9380ac 	lw	s3,-32596(gp)
  40a708:	afb50034 	sw	s5,52(sp)
  40a70c:	afb00020 	sw	s0,32(sp)
  40a710:	8f958128 	lw	s5,-32472(gp)
  40a714:	8f9080b0 	lw	s0,-32592(gp)
  40a718:	afbe0040 	sw	s8,64(sp)
  40a71c:	afb7003c 	sw	s7,60(sp)
  40a720:	afb60038 	sw	s6,56(sp)
  40a724:	afb40030 	sw	s4,48(sp)
  40a728:	afb20028 	sw	s2,40(sp)
  40a72c:	afb10024 	sw	s1,36(sp)
  40a730:	afbf0044 	sw	ra,68(sp)
  40a734:	afbc0010 	sw	gp,16(sp)
  40a738:	3c1e0041 	lui	s8,0x41
  40a73c:	3c170041 	lui	s7,0x41
  40a740:	0260b021 	move	s6,s3
  40a744:	24110001 	li	s1,1
  40a748:	24120002 	li	s2,2
  40a74c:	24140003 	li	s4,3
  40a750:	8f99820c 	lw	t9,-32244(gp)
  40a754:	8f84812c 	lw	a0,-32468(gp)
  40a758:	0320f809 	jalr	t9
  40a75c:	00000000 	nop
  40a760:	96020002 	lhu	v0,2(s0)
  40a764:	1440fffa 	bnez	v0,40a750 <remote_modbus_ctrl_lane+0x5c>
  40a768:	8fbc0010 	lw	gp,16(sp)
  40a76c:	92620003 	lbu	v0,3(s3)
  40a770:	1051001c 	beq	v0,s1,40a7e4 <remote_modbus_ctrl_lane+0xf0>
  40a774:	00000000 	nop
  40a778:	10520031 	beq	v0,s2,40a840 <remote_modbus_ctrl_lane+0x14c>
  40a77c:	8f9981f8 	lw	t9,-32264(gp)
  40a780:	1454fff4 	bne	v0,s4,40a754 <remote_modbus_ctrl_lane+0x60>
  40a784:	8f99820c 	lw	t9,-32244(gp)
  40a788:	8ea20000 	lw	v0,0(s5)
  40a78c:	8c42002c 	lw	v0,44(v0)
  40a790:	94420004 	lhu	v0,4(v0)
  40a794:	10400052 	beqz	v0,40a8e0 <remote_modbus_ctrl_lane+0x1ec>
  40a798:	8f9980ec 	lw	t9,-32532(gp)
  40a79c:	10510071 	beq	v0,s1,40a964 <remote_modbus_ctrl_lane+0x270>
  40a7a0:	8f9980e0 	lw	t9,-32544(gp)
  40a7a4:	10520075 	beq	v0,s2,40a97c <remote_modbus_ctrl_lane+0x288>
  40a7a8:	8f9980d4 	lw	t9,-32556(gp)
  40a7ac:	10540079 	beq	v0,s4,40a994 <remote_modbus_ctrl_lane+0x2a0>
  40a7b0:	24030004 	li	v1,4
  40a7b4:	10430004 	beq	v0,v1,40a7c8 <remote_modbus_ctrl_lane+0xd4>
  40a7b8:	8f9980c8 	lw	t9,-32568(gp)
  40a7bc:	240203e7 	li	v0,999
  40a7c0:	081029d4 	j	40a750 <remote_modbus_ctrl_lane+0x5c>
  40a7c4:	a6c2000a 	sh	v0,10(s6)
  40a7c8:	0320f809 	jalr	t9
  40a7cc:	00000000 	nop
  40a7d0:	1840008c 	blez	v0,40aa04 <remote_modbus_ctrl_lane+0x310>
  40a7d4:	8fbc0010 	lw	gp,16(sp)
  40a7d8:	24020004 	li	v0,4
  40a7dc:	081029d4 	j	40a750 <remote_modbus_ctrl_lane+0x5c>
  40a7e0:	a662000a 	sh	v0,10(s3)
  40a7e4:	8ea20000 	lw	v0,0(s5)
  40a7e8:	8c42002c 	lw	v0,44(v0)
  40a7ec:	94430000 	lhu	v1,0(v0)
  40a7f0:	10600034 	beqz	v1,40a8c4 <remote_modbus_ctrl_lane+0x1d0>
  40a7f4:	8f9980e4 	lw	t9,-32540(gp)
  40a7f8:	10710047 	beq	v1,s1,40a918 <remote_modbus_ctrl_lane+0x224>
  40a7fc:	8f9980d8 	lw	t9,-32552(gp)
  40a800:	1072004b 	beq	v1,s2,40a930 <remote_modbus_ctrl_lane+0x23c>
  40a804:	8f9980cc 	lw	t9,-32564(gp)
  40a808:	1074004f 	beq	v1,s4,40a948 <remote_modbus_ctrl_lane+0x254>
  40a80c:	24020004 	li	v0,4
  40a810:	10620004 	beq	v1,v0,40a824 <remote_modbus_ctrl_lane+0x130>
  40a814:	8f9980c0 	lw	t9,-32576(gp)
  40a818:	240203e7 	li	v0,999
  40a81c:	081029d4 	j	40a750 <remote_modbus_ctrl_lane+0x5c>
  40a820:	a6c20006 	sh	v0,6(s6)
  40a824:	0320f809 	jalr	t9
  40a828:	afa30018 	sw	v1,24(sp)
  40a82c:	8fbc0010 	lw	gp,16(sp)
  40a830:	1840fff9 	blez	v0,40a818 <remote_modbus_ctrl_lane+0x124>
  40a834:	8fa30018 	lw	v1,24(sp)
  40a838:	081029d4 	j	40a750 <remote_modbus_ctrl_lane+0x5c>
  40a83c:	a6c30006 	sh	v1,6(s6)
  40a840:	27c4d37c 	addiu	a0,s8,-11396
  40a844:	0320f809 	jalr	t9
  40a848:	24050002 	li	a1,2
  40a84c:	8ea20000 	lw	v0,0(s5)
  40a850:	8fbc0010 	lw	gp,16(sp)
  40a854:	8c42002c 	lw	v0,44(v0)
  40a858:	8f9981f8 	lw	t9,-32264(gp)
  40a85c:	94450002 	lhu	a1,2(v0)
  40a860:	0320f809 	jalr	t9
  40a864:	26e4d3a0 	addiu	a0,s7,-11360
  40a868:	8ea20000 	lw	v0,0(s5)
  40a86c:	8c42002c 	lw	v0,44(v0)
  40a870:	94430002 	lhu	v1,2(v0)
  40a874:	10600021 	beqz	v1,40a8fc <remote_modbus_ctrl_lane+0x208>
  40a878:	8fbc0010 	lw	gp,16(sp)
  40a87c:	1071004c 	beq	v1,s1,40a9b0 <remote_modbus_ctrl_lane+0x2bc>
  40a880:	8f9980dc 	lw	t9,-32548(gp)
  40a884:	10720052 	beq	v1,s2,40a9d0 <remote_modbus_ctrl_lane+0x2dc>
  40a888:	8f9980d0 	lw	t9,-32560(gp)
  40a88c:	10740056 	beq	v1,s4,40a9e8 <remote_modbus_ctrl_lane+0x2f4>
  40a890:	24020004 	li	v0,4
  40a894:	10620004 	beq	v1,v0,40a8a8 <remote_modbus_ctrl_lane+0x1b4>
  40a898:	8f9980c4 	lw	t9,-32572(gp)
  40a89c:	240203e7 	li	v0,999
  40a8a0:	081029d4 	j	40a750 <remote_modbus_ctrl_lane+0x5c>
  40a8a4:	a6c20008 	sh	v0,8(s6)
  40a8a8:	0320f809 	jalr	t9
  40a8ac:	afa30018 	sw	v1,24(sp)
  40a8b0:	8fbc0010 	lw	gp,16(sp)
  40a8b4:	1840fff9 	blez	v0,40a89c <remote_modbus_ctrl_lane+0x1a8>
  40a8b8:	8fa30018 	lw	v1,24(sp)
  40a8bc:	081029d4 	j	40a750 <remote_modbus_ctrl_lane+0x5c>
  40a8c0:	a6c30008 	sh	v1,8(s6)
  40a8c4:	0320f809 	jalr	t9
  40a8c8:	00000000 	nop
  40a8cc:	1840ffd2 	blez	v0,40a818 <remote_modbus_ctrl_lane+0x124>
  40a8d0:	8fbc0010 	lw	gp,16(sp)
  40a8d4:	a6c00006 	sh	zero,6(s6)
  40a8d8:	081029d4 	j	40a750 <remote_modbus_ctrl_lane+0x5c>
  40a8dc:	a2d10000 	sb	s1,0(s6)
  40a8e0:	0320f809 	jalr	t9
  40a8e4:	00000000 	nop
  40a8e8:	1840ffb4 	blez	v0,40a7bc <remote_modbus_ctrl_lane+0xc8>
  40a8ec:	8fbc0010 	lw	gp,16(sp)
  40a8f0:	a6c0000a 	sh	zero,10(s6)
  40a8f4:	081029d4 	j	40a750 <remote_modbus_ctrl_lane+0x5c>
  40a8f8:	a2d10002 	sb	s1,2(s6)
  40a8fc:	8f9980e8 	lw	t9,-32536(gp)
  40a900:	0320f809 	jalr	t9
  40a904:	00000000 	nop
  40a908:	1840ffe4 	blez	v0,40a89c <remote_modbus_ctrl_lane+0x1a8>
  40a90c:	8fbc0010 	lw	gp,16(sp)
  40a910:	081029d4 	j	40a750 <remote_modbus_ctrl_lane+0x5c>
  40a914:	a6c00008 	sh	zero,8(s6)
  40a918:	0320f809 	jalr	t9
  40a91c:	00000000 	nop
  40a920:	1840ffbd 	blez	v0,40a818 <remote_modbus_ctrl_lane+0x124>
  40a924:	8fbc0010 	lw	gp,16(sp)
  40a928:	081029d4 	j	40a750 <remote_modbus_ctrl_lane+0x5c>
  40a92c:	a6d10006 	sh	s1,6(s6)
  40a930:	0320f809 	jalr	t9
  40a934:	00000000 	nop
  40a938:	1840ffb7 	blez	v0,40a818 <remote_modbus_ctrl_lane+0x124>
  40a93c:	8fbc0010 	lw	gp,16(sp)
  40a940:	081029d4 	j	40a750 <remote_modbus_ctrl_lane+0x5c>
  40a944:	a6d20006 	sh	s2,6(s6)
  40a948:	8f9980fc 	lw	t9,-32516(gp)
  40a94c:	0320f809 	jalr	t9
  40a950:	00000000 	nop
  40a954:	1840ffb0 	blez	v0,40a818 <remote_modbus_ctrl_lane+0x124>
  40a958:	8fbc0010 	lw	gp,16(sp)
  40a95c:	081029d4 	j	40a750 <remote_modbus_ctrl_lane+0x5c>
  40a960:	a6d40006 	sh	s4,6(s6)
  40a964:	0320f809 	jalr	t9
  40a968:	00000000 	nop
  40a96c:	1840ff93 	blez	v0,40a7bc <remote_modbus_ctrl_lane+0xc8>
  40a970:	8fbc0010 	lw	gp,16(sp)
  40a974:	081029d4 	j	40a750 <remote_modbus_ctrl_lane+0x5c>
  40a978:	a6d1000a 	sh	s1,10(s6)
  40a97c:	0320f809 	jalr	t9
  40a980:	00000000 	nop
  40a984:	1840ff8d 	blez	v0,40a7bc <remote_modbus_ctrl_lane+0xc8>
  40a988:	8fbc0010 	lw	gp,16(sp)
  40a98c:	081029d4 	j	40a750 <remote_modbus_ctrl_lane+0x5c>
  40a990:	a6d2000a 	sh	s2,10(s6)
  40a994:	8f998104 	lw	t9,-32508(gp)
  40a998:	0320f809 	jalr	t9
  40a99c:	00000000 	nop
  40a9a0:	1840ff86 	blez	v0,40a7bc <remote_modbus_ctrl_lane+0xc8>
  40a9a4:	8fbc0010 	lw	gp,16(sp)
  40a9a8:	081029d4 	j	40a750 <remote_modbus_ctrl_lane+0x5c>
  40a9ac:	a6d4000a 	sh	s4,10(s6)
  40a9b0:	0320f809 	jalr	t9
  40a9b4:	00000000 	nop
  40a9b8:	1840ffb8 	blez	v0,40a89c <remote_modbus_ctrl_lane+0x1a8>
  40a9bc:	8fbc0010 	lw	gp,16(sp)
  40a9c0:	24020001 	li	v0,1
  40a9c4:	a6d10008 	sh	s1,8(s6)
  40a9c8:	081029d4 	j	40a750 <remote_modbus_ctrl_lane+0x5c>
  40a9cc:	a2c20001 	sb	v0,1(s6)
  40a9d0:	0320f809 	jalr	t9
  40a9d4:	00000000 	nop
  40a9d8:	1840ffb0 	blez	v0,40a89c <remote_modbus_ctrl_lane+0x1a8>
  40a9dc:	8fbc0010 	lw	gp,16(sp)
  40a9e0:	081029d4 	j	40a750 <remote_modbus_ctrl_lane+0x5c>
  40a9e4:	a6d20008 	sh	s2,8(s6)
  40a9e8:	8f998100 	lw	t9,-32512(gp)
  40a9ec:	0320f809 	jalr	t9
  40a9f0:	00000000 	nop
  40a9f4:	1840ffa9 	blez	v0,40a89c <remote_modbus_ctrl_lane+0x1a8>
  40a9f8:	8fbc0010 	lw	gp,16(sp)
  40a9fc:	081029d4 	j	40a750 <remote_modbus_ctrl_lane+0x5c>
  40aa00:	a6d40008 	sh	s4,8(s6)
  40aa04:	240203e7 	li	v0,999
  40aa08:	081029d4 	j	40a750 <remote_modbus_ctrl_lane+0x5c>
  40aa0c:	a662000a 	sh	v0,10(s3)

0040aa10 <modbus_tcp_server>:
  40aa10:	3c1c0042 	lui	gp,0x42
  40aa14:	279c5520 	addiu	gp,gp,21792
  40aa18:	27bdffa0 	addiu	sp,sp,-96
  40aa1c:	8f998188 	lw	t9,-32376(gp)
  40aa20:	8f84812c 	lw	a0,-32468(gp)
  40aa24:	2402ffff 	li	v0,-1
  40aa28:	00002821 	move	a1,zero
  40aa2c:	afbc0020 	sw	gp,32(sp)
  40aa30:	afbf005c 	sw	ra,92(sp)
  40aa34:	afbe0058 	sw	s8,88(sp)
  40aa38:	afb70054 	sw	s7,84(sp)
  40aa3c:	afb60050 	sw	s6,80(sp)
  40aa40:	afb5004c 	sw	s5,76(sp)
  40aa44:	afb40048 	sw	s4,72(sp)
  40aa48:	afb30044 	sw	s3,68(sp)
  40aa4c:	afb20040 	sw	s2,64(sp)
  40aa50:	afb1003c 	sw	s1,60(sp)
  40aa54:	afb00038 	sw	s0,56(sp)
  40aa58:	00003021 	move	a2,zero
  40aa5c:	0320f809 	jalr	t9
  40aa60:	afa20028 	sw	v0,40(sp)
  40aa64:	04400043 	bltz	v0,40ab74 <modbus_tcp_server+0x164>
  40aa68:	8fbc0020 	lw	gp,32(sp)
  40aa6c:	8f9981e8 	lw	t9,-32280(gp)
  40aa70:	3c040041 	lui	a0,0x41
  40aa74:	240501f6 	li	a1,502
  40aa78:	0320f809 	jalr	t9
  40aa7c:	2484d3c4 	addiu	a0,a0,-11324
  40aa80:	8fbc0020 	lw	gp,32(sp)
  40aa84:	24040104 	li	a0,260
  40aa88:	8f9981b8 	lw	t9,-32328(gp)
  40aa8c:	0320f809 	jalr	t9
  40aa90:	00408021 	move	s0,v0
  40aa94:	8fbc0020 	lw	gp,32(sp)
  40aa98:	02002021 	move	a0,s0
  40aa9c:	8f9981d4 	lw	t9,-32300(gp)
  40aaa0:	0320f809 	jalr	t9
  40aaa4:	00408821 	move	s1,v0
  40aaa8:	3c030042 	lui	v1,0x42
  40aaac:	9464d85a 	lhu	a0,-10150(v1)
  40aab0:	3c030042 	lui	v1,0x42
  40aab4:	9465d858 	lhu	a1,-10152(v1)
  40aab8:	3c030042 	lui	v1,0x42
  40aabc:	9466d856 	lhu	a2,-10154(v1)
  40aac0:	3c030042 	lui	v1,0x42
  40aac4:	9467d854 	lhu	a3,-10156(v1)
  40aac8:	3c030042 	lui	v1,0x42
  40aacc:	946ad50a 	lhu	t2,-10998(v1)
  40aad0:	3c030042 	lui	v1,0x42
  40aad4:	8fbc0020 	lw	gp,32(sp)
  40aad8:	9469d504 	lhu	t1,-11004(v1)
  40aadc:	3c130042 	lui	s3,0x42
  40aae0:	3c030042 	lui	v1,0x42
  40aae4:	9468d502 	lhu	t0,-11006(v1)
  40aae8:	9663d500 	lhu	v1,-11008(s3)
  40aaec:	8f998154 	lw	t9,-32428(gp)
  40aaf0:	8f948128 	lw	s4,-32472(gp)
  40aaf4:	afaa0010 	sw	t2,16(sp)
  40aaf8:	afa90014 	sw	t1,20(sp)
  40aafc:	afa80018 	sw	t0,24(sp)
  40ab00:	afa3001c 	sw	v1,28(sp)
  40ab04:	0320f809 	jalr	t9
  40ab08:	00409021 	move	s2,v0
  40ab0c:	8fbc0020 	lw	gp,32(sp)
  40ab10:	10400025 	beqz	v0,40aba8 <modbus_tcp_server+0x198>
  40ab14:	ae820000 	sw	v0,0(s4)
  40ab18:	3c050042 	lui	a1,0x42
  40ab1c:	94a3d508 	lhu	v1,-11000(a1)
  40ab20:	10600008 	beqz	v1,40ab44 <modbus_tcp_server+0x134>
  40ab24:	00001821 	move	v1,zero
  40ab28:	8c44002c 	lw	a0,44(v0)
  40ab2c:	a4800000 	sh	zero,0(a0)
  40ab30:	94a6d508 	lhu	a2,-11000(a1)
  40ab34:	24630001 	addiu	v1,v1,1
  40ab38:	0066302a 	slt	a2,v1,a2
  40ab3c:	14c0fffb 	bnez	a2,40ab2c <modbus_tcp_server+0x11c>
  40ab40:	24840002 	addiu	a0,a0,2
  40ab44:	9663d500 	lhu	v1,-11008(s3)
  40ab48:	1060002b 	beqz	v1,40abf8 <modbus_tcp_server+0x1e8>
  40ab4c:	00001821 	move	v1,zero
  40ab50:	8c420028 	lw	v0,40(v0)
  40ab54:	a4400000 	sh	zero,0(v0)
  40ab58:	9664d500 	lhu	a0,-11008(s3)
  40ab5c:	24630001 	addiu	v1,v1,1
  40ab60:	0064202a 	slt	a0,v1,a0
  40ab64:	1480fffb 	bnez	a0,40ab54 <modbus_tcp_server+0x144>
  40ab68:	24420002 	addiu	v0,v0,2
  40ab6c:	08102aff 	j	40abfc <modbus_tcp_server+0x1ec>
  40ab70:	8f9981e0 	lw	t9,-32288(gp)
  40ab74:	8fbf005c 	lw	ra,92(sp)
  40ab78:	8fbe0058 	lw	s8,88(sp)
  40ab7c:	8fb70054 	lw	s7,84(sp)
  40ab80:	8fb60050 	lw	s6,80(sp)
  40ab84:	8fb5004c 	lw	s5,76(sp)
  40ab88:	8fb40048 	lw	s4,72(sp)
  40ab8c:	8fb30044 	lw	s3,68(sp)
  40ab90:	8fb20040 	lw	s2,64(sp)
  40ab94:	8fb1003c 	lw	s1,60(sp)
  40ab98:	8fb00038 	lw	s0,56(sp)
  40ab9c:	2402ffff 	li	v0,-1
  40aba0:	03e00008 	jr	ra
  40aba4:	27bd0060 	addiu	sp,sp,96
  40aba8:	8f99817c 	lw	t9,-32388(gp)
  40abac:	8f8281f0 	lw	v0,-32272(gp)
  40abb0:	0320f809 	jalr	t9
  40abb4:	8c530000 	lw	s3,0(v0)
  40abb8:	8fbc0020 	lw	gp,32(sp)
  40abbc:	8f998208 	lw	t9,-32248(gp)
  40abc0:	0320f809 	jalr	t9
  40abc4:	8c440000 	lw	a0,0(v0)
  40abc8:	8fbc0020 	lw	gp,32(sp)
  40abcc:	3c050041 	lui	a1,0x41
  40abd0:	8f998194 	lw	t9,-32364(gp)
  40abd4:	02602021 	move	a0,s3
  40abd8:	24a5d3cc 	addiu	a1,a1,-11316
  40abdc:	0320f809 	jalr	t9
  40abe0:	00403021 	move	a2,v0
  40abe4:	8fbc0020 	lw	gp,32(sp)
  40abe8:	8f998164 	lw	t9,-32412(gp)
  40abec:	0320f809 	jalr	t9
  40abf0:	02002021 	move	a0,s0
  40abf4:	8fbc0020 	lw	gp,32(sp)
  40abf8:	8f9981e0 	lw	t9,-32288(gp)
  40abfc:	02002021 	move	a0,s0
  40ac00:	0320f809 	jalr	t9
  40ac04:	24050001 	li	a1,1
  40ac08:	8fbc0020 	lw	gp,32(sp)
  40ac0c:	afa20028 	sw	v0,40(sp)
  40ac10:	8f9580b0 	lw	s5,-32592(gp)
  40ac14:	02329021 	addu	s2,s1,s2
  40ac18:	24130006 	li	s3,6
  40ac1c:	24170001 	li	s7,1
  40ac20:	241e0002 	li	s8,2
  40ac24:	8f9981a8 	lw	t9,-32344(gp)
  40ac28:	24020001 	li	v0,1
  40ac2c:	02002021 	move	a0,s0
  40ac30:	27a50028 	addiu	a1,sp,40
  40ac34:	0320f809 	jalr	t9
  40ac38:	a2a20013 	sb	v0,19(s5)
  40ac3c:	24160003 	li	s6,3
  40ac40:	8fbc0020 	lw	gp,32(sp)
  40ac44:	a2a00013 	sb	zero,19(s5)
  40ac48:	8f998168 	lw	t9,-32408(gp)
  40ac4c:	02002021 	move	a0,s0
  40ac50:	0320f809 	jalr	t9
  40ac54:	02202821 	move	a1,s1
  40ac58:	00403021 	move	a2,v0
  40ac5c:	1040fffa 	beqz	v0,40ac48 <modbus_tcp_server+0x238>
  40ac60:	8fbc0020 	lw	gp,32(sp)
  40ac64:	28420002 	slti	v0,v0,2
  40ac68:	14400020 	bnez	v0,40acec <modbus_tcp_server+0x2dc>
  40ac6c:	8f998170 	lw	t9,-32400(gp)
  40ac70:	92420000 	lbu	v0,0(s2)
  40ac74:	10530008 	beq	v0,s3,40ac98 <modbus_tcp_server+0x288>
  40ac78:	00000000 	nop
  40ac7c:	8e870000 	lw	a3,0(s4)
  40ac80:	8f998174 	lw	t9,-32396(gp)
  40ac84:	02002021 	move	a0,s0
  40ac88:	0320f809 	jalr	t9
  40ac8c:	02202821 	move	a1,s1
  40ac90:	08102b12 	j	40ac48 <modbus_tcp_server+0x238>
  40ac94:	8fbc0020 	lw	gp,32(sp)
  40ac98:	96a20002 	lhu	v0,2(s5)
  40ac9c:	1440fff7 	bnez	v0,40ac7c <modbus_tcp_server+0x26c>
  40aca0:	00000000 	nop
  40aca4:	92420002 	lbu	v0,2(s2)
  40aca8:	10570014 	beq	v0,s7,40acfc <modbus_tcp_server+0x2ec>
  40acac:	00000000 	nop
  40acb0:	105e001d 	beq	v0,s8,40ad28 <modbus_tcp_server+0x318>
  40acb4:	00000000 	nop
  40acb8:	1456fff0 	bne	v0,s6,40ac7c <modbus_tcp_server+0x26c>
  40acbc:	00000000 	nop
  40acc0:	92430003 	lbu	v1,3(s2)
  40acc4:	92420004 	lbu	v0,4(s2)
  40acc8:	00031a00 	sll	v1,v1,0x8
  40accc:	00621025 	or	v0,v1,v0
  40acd0:	2c430005 	sltiu	v1,v0,5
  40acd4:	1460003b 	bnez	v1,40adc4 <modbus_tcp_server+0x3b4>
  40acd8:	240303e7 	li	v1,999
  40acdc:	8e870000 	lw	a3,0(s4)
  40ace0:	8ce2002c 	lw	v0,44(a3)
  40ace4:	08102b20 	j	40ac80 <modbus_tcp_server+0x270>
  40ace8:	a4430004 	sh	v1,4(v0)
  40acec:	0320f809 	jalr	t9
  40acf0:	02002021 	move	a0,s0
  40acf4:	08102b09 	j	40ac24 <modbus_tcp_server+0x214>
  40acf8:	8fbc0020 	lw	gp,32(sp)
  40acfc:	92450003 	lbu	a1,3(s2)
  40ad00:	92420004 	lbu	v0,4(s2)
  40ad04:	00052a00 	sll	a1,a1,0x8
  40ad08:	00a22825 	or	a1,a1,v0
  40ad0c:	2ca20005 	sltiu	v0,a1,5
  40ad10:	14400010 	bnez	v0,40ad54 <modbus_tcp_server+0x344>
  40ad14:	240303e7 	li	v1,999
  40ad18:	8e870000 	lw	a3,0(s4)
  40ad1c:	8ce2002c 	lw	v0,44(a3)
  40ad20:	08102b20 	j	40ac80 <modbus_tcp_server+0x270>
  40ad24:	a4430000 	sh	v1,0(v0)
  40ad28:	92450003 	lbu	a1,3(s2)
  40ad2c:	92420004 	lbu	v0,4(s2)
  40ad30:	00052a00 	sll	a1,a1,0x8
  40ad34:	00a22825 	or	a1,a1,v0
  40ad38:	2ca20005 	sltiu	v0,a1,5
  40ad3c:	14400018 	bnez	v0,40ada0 <modbus_tcp_server+0x390>
  40ad40:	240303e7 	li	v1,999
  40ad44:	8e870000 	lw	a3,0(s4)
  40ad48:	8ce2002c 	lw	v0,44(a3)
  40ad4c:	08102b20 	j	40ac80 <modbus_tcp_server+0x270>
  40ad50:	a4430002 	sh	v1,2(v0)
  40ad54:	8e820000 	lw	v0,0(s4)
  40ad58:	3c030041 	lui	v1,0x41
  40ad5c:	8c42002c 	lw	v0,44(v0)
  40ad60:	8f9981f8 	lw	t9,-32264(gp)
  40ad64:	a4450000 	sh	a1,0(v0)
  40ad68:	8f8280ac 	lw	v0,-32596(gp)
  40ad6c:	2464d3f0 	addiu	a0,v1,-11280
  40ad70:	a0570003 	sb	s7,3(v0)
  40ad74:	0320f809 	jalr	t9
  40ad78:	afa60030 	sw	a2,48(sp)
  40ad7c:	8fbc0020 	lw	gp,32(sp)
  40ad80:	8f84812c 	lw	a0,-32468(gp)
  40ad84:	8f998204 	lw	t9,-32252(gp)
  40ad88:	0320f809 	jalr	t9
  40ad8c:	00000000 	nop
  40ad90:	8fbc0020 	lw	gp,32(sp)
  40ad94:	8e870000 	lw	a3,0(s4)
  40ad98:	08102b20 	j	40ac80 <modbus_tcp_server+0x270>
  40ad9c:	8fa60030 	lw	a2,48(sp)
  40ada0:	8e820000 	lw	v0,0(s4)
  40ada4:	3c030041 	lui	v1,0x41
  40ada8:	8c42002c 	lw	v0,44(v0)
  40adac:	8f9981f8 	lw	t9,-32264(gp)
  40adb0:	a4450002 	sh	a1,2(v0)
  40adb4:	8f8280ac 	lw	v0,-32596(gp)
  40adb8:	2464d434 	addiu	a0,v1,-11212
  40adbc:	08102b5d 	j	40ad74 <modbus_tcp_server+0x364>
  40adc0:	a05e0003 	sb	s8,3(v0)
  40adc4:	8e830000 	lw	v1,0(s4)
  40adc8:	8f9981f8 	lw	t9,-32264(gp)
  40adcc:	8c63002c 	lw	v1,44(v1)
  40add0:	3c040041 	lui	a0,0x41
  40add4:	a4620004 	sh	v0,4(v1)
  40add8:	8f8380ac 	lw	v1,-32596(gp)
  40addc:	2484d478 	addiu	a0,a0,-11144
  40ade0:	a0760003 	sb	s6,3(v1)
  40ade4:	00402821 	move	a1,v0
  40ade8:	0320f809 	jalr	t9
  40adec:	afa60030 	sw	a2,48(sp)
  40adf0:	8fbc0020 	lw	gp,32(sp)
  40adf4:	8f84812c 	lw	a0,-32468(gp)
  40adf8:	8f998204 	lw	t9,-32252(gp)
  40adfc:	0320f809 	jalr	t9
  40ae00:	00000000 	nop
  40ae04:	8fbc0020 	lw	gp,32(sp)
  40ae08:	8e870000 	lw	a3,0(s4)
  40ae0c:	08102b20 	j	40ac80 <modbus_tcp_server+0x270>
  40ae10:	8fa60030 	lw	a2,48(sp)
	...

0040ae20 <__libc_csu_init>:
  40ae20:	3c1c0002 	lui	gp,0x2
  40ae24:	279ca700 	addiu	gp,gp,-22784
  40ae28:	0399e021 	addu	gp,gp,t9
  40ae2c:	27bdffc8 	addiu	sp,sp,-56
  40ae30:	8f998130 	lw	t9,-32464(gp)
  40ae34:	afbc0010 	sw	gp,16(sp)
  40ae38:	afb50030 	sw	s5,48(sp)
  40ae3c:	afb4002c 	sw	s4,44(sp)
  40ae40:	afb30028 	sw	s3,40(sp)
  40ae44:	afb20024 	sw	s2,36(sp)
  40ae48:	afb10020 	sw	s1,32(sp)
  40ae4c:	afbf0034 	sw	ra,52(sp)
  40ae50:	afb0001c 	sw	s0,28(sp)
  40ae54:	00809821 	move	s3,a0
  40ae58:	00a0a021 	move	s4,a1
  40ae5c:	0320f809 	jalr	t9
  40ae60:	00c0a821 	move	s5,a2
  40ae64:	8fbc0010 	lw	gp,16(sp)
  40ae68:	8f918134 	lw	s1,-32460(gp)
  40ae6c:	8f928134 	lw	s2,-32460(gp)
  40ae70:	02519023 	subu	s2,s2,s1
  40ae74:	00129083 	sra	s2,s2,0x2
  40ae78:	12400009 	beqz	s2,40aea0 <__libc_csu_init+0x80>
  40ae7c:	00008021 	move	s0,zero
  40ae80:	8e390000 	lw	t9,0(s1)
  40ae84:	02602021 	move	a0,s3
  40ae88:	02802821 	move	a1,s4
  40ae8c:	02a03021 	move	a2,s5
  40ae90:	0320f809 	jalr	t9
  40ae94:	26100001 	addiu	s0,s0,1
  40ae98:	1612fff9 	bne	s0,s2,40ae80 <__libc_csu_init+0x60>
  40ae9c:	26310004 	addiu	s1,s1,4
  40aea0:	8fbf0034 	lw	ra,52(sp)
  40aea4:	8fb50030 	lw	s5,48(sp)
  40aea8:	8fb4002c 	lw	s4,44(sp)
  40aeac:	8fb30028 	lw	s3,40(sp)
  40aeb0:	8fb20024 	lw	s2,36(sp)
  40aeb4:	8fb10020 	lw	s1,32(sp)
  40aeb8:	8fb0001c 	lw	s0,28(sp)
  40aebc:	03e00008 	jr	ra
  40aec0:	27bd0038 	addiu	sp,sp,56

0040aec4 <__libc_csu_fini>:
  40aec4:	03e00008 	jr	ra
  40aec8:	00000000 	nop
  40aecc:	00000000 	nop

0040aed0 <__do_global_ctors_aux>:
  40aed0:	27bdffd8 	addiu	sp,sp,-40
  40aed4:	afb0001c 	sw	s0,28(sp)
  40aed8:	3c100042 	lui	s0,0x42
  40aedc:	afb10020 	sw	s1,32(sp)
  40aee0:	afbf0024 	sw	ra,36(sp)
  40aee4:	2610d4c0 	addiu	s0,s0,-11072
  40aee8:	08102bbe 	j	40aef8 <__do_global_ctors_aux+0x28>
  40aeec:	2411ffff 	li	s1,-1
  40aef0:	0320f809 	jalr	t9
  40aef4:	2610fffc 	addiu	s0,s0,-4
  40aef8:	8e190000 	lw	t9,0(s0)
  40aefc:	1731fffc 	bne	t9,s1,40aef0 <__do_global_ctors_aux+0x20>
  40af00:	8fbf0024 	lw	ra,36(sp)
  40af04:	8fb10020 	lw	s1,32(sp)
  40af08:	8fb0001c 	lw	s0,28(sp)
  40af0c:	03e00008 	jr	ra
  40af10:	27bd0028 	addiu	sp,sp,40
	...

Disassembly of section .MIPS.stubs:

0040af20 <_MIPS_STUBS_>:
  40af20:	8f998010 	lw	t9,-32752(gp)
  40af24:	03e07821 	move	t7,ra
  40af28:	0320f809 	jalr	t9
  40af2c:	24180083 	li	t8,131
  40af30:	8f998010 	lw	t9,-32752(gp)
  40af34:	03e07821 	move	t7,ra
  40af38:	0320f809 	jalr	t9
  40af3c:	24180082 	li	t8,130
  40af40:	8f998010 	lw	t9,-32752(gp)
  40af44:	03e07821 	move	t7,ra
  40af48:	0320f809 	jalr	t9
  40af4c:	24180081 	li	t8,129
  40af50:	8f998010 	lw	t9,-32752(gp)
  40af54:	03e07821 	move	t7,ra
  40af58:	0320f809 	jalr	t9
  40af5c:	24180080 	li	t8,128
  40af60:	8f998010 	lw	t9,-32752(gp)
  40af64:	03e07821 	move	t7,ra
  40af68:	0320f809 	jalr	t9
  40af6c:	2418007e 	li	t8,126
  40af70:	8f998010 	lw	t9,-32752(gp)
  40af74:	03e07821 	move	t7,ra
  40af78:	0320f809 	jalr	t9
  40af7c:	2418007d 	li	t8,125
  40af80:	8f998010 	lw	t9,-32752(gp)
  40af84:	03e07821 	move	t7,ra
  40af88:	0320f809 	jalr	t9
  40af8c:	2418007b 	li	t8,123
  40af90:	8f998010 	lw	t9,-32752(gp)
  40af94:	03e07821 	move	t7,ra
  40af98:	0320f809 	jalr	t9
  40af9c:	2418007a 	li	t8,122
  40afa0:	8f998010 	lw	t9,-32752(gp)
  40afa4:	03e07821 	move	t7,ra
  40afa8:	0320f809 	jalr	t9
  40afac:	24180079 	li	t8,121
  40afb0:	8f998010 	lw	t9,-32752(gp)
  40afb4:	03e07821 	move	t7,ra
  40afb8:	0320f809 	jalr	t9
  40afbc:	24180078 	li	t8,120
  40afc0:	8f998010 	lw	t9,-32752(gp)
  40afc4:	03e07821 	move	t7,ra
  40afc8:	0320f809 	jalr	t9
  40afcc:	24180077 	li	t8,119
  40afd0:	8f998010 	lw	t9,-32752(gp)
  40afd4:	03e07821 	move	t7,ra
  40afd8:	0320f809 	jalr	t9
  40afdc:	24180076 	li	t8,118
  40afe0:	8f998010 	lw	t9,-32752(gp)
  40afe4:	03e07821 	move	t7,ra
  40afe8:	0320f809 	jalr	t9
  40afec:	24180075 	li	t8,117
  40aff0:	8f998010 	lw	t9,-32752(gp)
  40aff4:	03e07821 	move	t7,ra
  40aff8:	0320f809 	jalr	t9
  40affc:	24180074 	li	t8,116
  40b000:	8f998010 	lw	t9,-32752(gp)
  40b004:	03e07821 	move	t7,ra
  40b008:	0320f809 	jalr	t9
  40b00c:	24180073 	li	t8,115
  40b010:	8f998010 	lw	t9,-32752(gp)
  40b014:	03e07821 	move	t7,ra
  40b018:	0320f809 	jalr	t9
  40b01c:	24180072 	li	t8,114
  40b020:	8f998010 	lw	t9,-32752(gp)
  40b024:	03e07821 	move	t7,ra
  40b028:	0320f809 	jalr	t9
  40b02c:	24180071 	li	t8,113
  40b030:	8f998010 	lw	t9,-32752(gp)
  40b034:	03e07821 	move	t7,ra
  40b038:	0320f809 	jalr	t9
  40b03c:	24180070 	li	t8,112
  40b040:	8f998010 	lw	t9,-32752(gp)
  40b044:	03e07821 	move	t7,ra
  40b048:	0320f809 	jalr	t9
  40b04c:	2418006f 	li	t8,111
  40b050:	8f998010 	lw	t9,-32752(gp)
  40b054:	03e07821 	move	t7,ra
  40b058:	0320f809 	jalr	t9
  40b05c:	2418006e 	li	t8,110
  40b060:	8f998010 	lw	t9,-32752(gp)
  40b064:	03e07821 	move	t7,ra
  40b068:	0320f809 	jalr	t9
  40b06c:	2418006d 	li	t8,109
  40b070:	8f998010 	lw	t9,-32752(gp)
  40b074:	03e07821 	move	t7,ra
  40b078:	0320f809 	jalr	t9
  40b07c:	2418006b 	li	t8,107
  40b080:	8f998010 	lw	t9,-32752(gp)
  40b084:	03e07821 	move	t7,ra
  40b088:	0320f809 	jalr	t9
  40b08c:	2418006a 	li	t8,106
  40b090:	8f998010 	lw	t9,-32752(gp)
  40b094:	03e07821 	move	t7,ra
  40b098:	0320f809 	jalr	t9
  40b09c:	24180069 	li	t8,105
  40b0a0:	8f998010 	lw	t9,-32752(gp)
  40b0a4:	03e07821 	move	t7,ra
  40b0a8:	0320f809 	jalr	t9
  40b0ac:	24180068 	li	t8,104
  40b0b0:	8f998010 	lw	t9,-32752(gp)
  40b0b4:	03e07821 	move	t7,ra
  40b0b8:	0320f809 	jalr	t9
  40b0bc:	24180067 	li	t8,103
  40b0c0:	8f998010 	lw	t9,-32752(gp)
  40b0c4:	03e07821 	move	t7,ra
  40b0c8:	0320f809 	jalr	t9
  40b0cc:	24180066 	li	t8,102
  40b0d0:	8f998010 	lw	t9,-32752(gp)
  40b0d4:	03e07821 	move	t7,ra
  40b0d8:	0320f809 	jalr	t9
  40b0dc:	24180065 	li	t8,101
  40b0e0:	8f998010 	lw	t9,-32752(gp)
  40b0e4:	03e07821 	move	t7,ra
  40b0e8:	0320f809 	jalr	t9
  40b0ec:	24180064 	li	t8,100
  40b0f0:	8f998010 	lw	t9,-32752(gp)
  40b0f4:	03e07821 	move	t7,ra
  40b0f8:	0320f809 	jalr	t9
  40b0fc:	24180063 	li	t8,99
  40b100:	8f998010 	lw	t9,-32752(gp)
  40b104:	03e07821 	move	t7,ra
  40b108:	0320f809 	jalr	t9
  40b10c:	24180062 	li	t8,98
  40b110:	8f998010 	lw	t9,-32752(gp)
  40b114:	03e07821 	move	t7,ra
  40b118:	0320f809 	jalr	t9
  40b11c:	24180061 	li	t8,97
  40b120:	8f998010 	lw	t9,-32752(gp)
  40b124:	03e07821 	move	t7,ra
  40b128:	0320f809 	jalr	t9
  40b12c:	24180060 	li	t8,96
  40b130:	8f998010 	lw	t9,-32752(gp)
  40b134:	03e07821 	move	t7,ra
  40b138:	0320f809 	jalr	t9
  40b13c:	2418005f 	li	t8,95
  40b140:	8f998010 	lw	t9,-32752(gp)
  40b144:	03e07821 	move	t7,ra
  40b148:	0320f809 	jalr	t9
  40b14c:	2418005e 	li	t8,94
  40b150:	8f998010 	lw	t9,-32752(gp)
  40b154:	03e07821 	move	t7,ra
  40b158:	0320f809 	jalr	t9
  40b15c:	2418005d 	li	t8,93
  40b160:	8f998010 	lw	t9,-32752(gp)
  40b164:	03e07821 	move	t7,ra
  40b168:	0320f809 	jalr	t9
  40b16c:	2418005c 	li	t8,92
  40b170:	8f998010 	lw	t9,-32752(gp)
  40b174:	03e07821 	move	t7,ra
  40b178:	0320f809 	jalr	t9
  40b17c:	2418005a 	li	t8,90
  40b180:	8f998010 	lw	t9,-32752(gp)
  40b184:	03e07821 	move	t7,ra
  40b188:	0320f809 	jalr	t9
  40b18c:	24180059 	li	t8,89
  40b190:	8f998010 	lw	t9,-32752(gp)
  40b194:	03e07821 	move	t7,ra
  40b198:	0320f809 	jalr	t9
  40b19c:	24180057 	li	t8,87
  40b1a0:	8f998010 	lw	t9,-32752(gp)
  40b1a4:	03e07821 	move	t7,ra
  40b1a8:	0320f809 	jalr	t9
  40b1ac:	24180056 	li	t8,86
  40b1b0:	8f998010 	lw	t9,-32752(gp)
  40b1b4:	03e07821 	move	t7,ra
  40b1b8:	0320f809 	jalr	t9
  40b1bc:	24180055 	li	t8,85
  40b1c0:	8f998010 	lw	t9,-32752(gp)
  40b1c4:	03e07821 	move	t7,ra
  40b1c8:	0320f809 	jalr	t9
  40b1cc:	24180054 	li	t8,84
  40b1d0:	8f998010 	lw	t9,-32752(gp)
  40b1d4:	03e07821 	move	t7,ra
  40b1d8:	0320f809 	jalr	t9
  40b1dc:	24180052 	li	t8,82
  40b1e0:	8f998010 	lw	t9,-32752(gp)
  40b1e4:	03e07821 	move	t7,ra
  40b1e8:	0320f809 	jalr	t9
  40b1ec:	24180051 	li	t8,81
  40b1f0:	8f998010 	lw	t9,-32752(gp)
  40b1f4:	03e07821 	move	t7,ra
  40b1f8:	0320f809 	jalr	t9
  40b1fc:	24180050 	li	t8,80
	...

Disassembly of section .fini:

0040b210 <_fini>:
  40b210:	3c1c0002 	lui	gp,0x2
  40b214:	279ca310 	addiu	gp,gp,-23792
  40b218:	0399e021 	addu	gp,gp,t9
  40b21c:	27bdffe0 	addiu	sp,sp,-32
  40b220:	afbc0010 	sw	gp,16(sp)
  40b224:	afbf001c 	sw	ra,28(sp)
  40b228:	04110001 	bal	40b230 <_fini+0x20>
  40b22c:	00000000 	nop
  40b230:	3c1c0042 	lui	gp,0x42
  40b234:	279c5520 	addiu	gp,gp,21792
  40b238:	8f998024 	lw	t9,-32732(gp)
  40b23c:	273919bc 	addiu	t9,t9,6588
  40b240:	0411d9de 	bal	4019bc <__do_global_dtors_aux>
  40b244:	00000000 	nop
  40b248:	8fbf001c 	lw	ra,28(sp)
  40b24c:	03e00008 	jr	ra
  40b250:	27bd0020 	addiu	sp,sp,32
Contents of the .eh_frame section:

00000000 ZERO terminator


